EXPORTS
    _ZN12visual_media10get_lockedEv @1
    _ZN12visual_media10get_pixelsEv @2
    _ZN12visual_media10get_x_sizeEv @3
    _ZN12visual_media10get_y_sizeEv @4
    _ZN12visual_media10set_lockedEb @5
    _ZN12visual_media10set_pixelsEPv @6
    _ZN12visual_media10set_x_sizeEi @7
    _ZN12visual_media10set_y_sizeEi @8
    _ZN12visual_media12get_rendererEv @9
    _ZN12visual_media12load_as_textEP9_TTF_FontPKcbj @10
    _ZN12visual_media12set_rendererEP12SDL_Renderer @11
    _ZN12visual_media13get_lock_rectEv @12
    _ZN12visual_media13load_as_blankE17SDL_TextureAccess @13
    _ZN12visual_media13load_as_imageEPKc @14
    _ZN12visual_media13set_alpha_modEh @15
    _ZN12visual_media13set_color_modEv @16
    _ZN12visual_media13set_lock_rectE8SDL_Rect @17
    _ZN12visual_media14get_element_IDEv @18
    _ZN12visual_media14set_blend_modeE13SDL_BlendMode @19
    _ZN12visual_media14set_element_IDEi @20
    _ZN12visual_media16get_pixel_lengthEv @21
    _ZN12visual_media16renderer_presentEv @22
    _ZN12visual_media18compare_element_IDEi @23
    _ZN12visual_media20set_as_render_targetEv @24
    _ZN12visual_media4wipeEv @25
    _ZN12visual_media6renderEii8SDL_Rectd16SDL_RendererFlip @26
    _ZN12visual_media7get_redEv @27
    _ZN12visual_media7set_redEh @28
    _ZN12visual_media8get_blueEv @29
    _ZN12visual_media8set_blueEh @30
    _ZN12visual_media9get_alphaEv @31
    _ZN12visual_media9get_colorEv @32
    _ZN12visual_media9get_greenEv @33
    _ZN12visual_media9get_pitchEv @34
    _ZN12visual_media9get_pixelEjj @35
    _ZN12visual_media9set_alphaEh @36
    _ZN12visual_media9set_colorEhhhh @37
    _ZN12visual_media9set_greenEh @38
    _ZN12visual_media9set_pixelEjjj @39
    _ZN12visual_mediaC1Ehhhhi @40
    _ZN12visual_mediaC2Ehhhhi @41
    _ZN12visual_mediaD1Ev @42
    _ZN12visual_mediaD2Ev @43
    _get_output_format @44
