EXPORTS
    _ZN11mixer_pointC1Eii @1
    _ZN11mixer_pointC2Eii @2
    _ZN9__gnu_cxx13new_allocatorI5musicE10deallocateEPS1_j @3
    _ZN9__gnu_cxx13new_allocatorI5musicE7destroyIS1_EEvPT_ @4
    _ZN9__gnu_cxx13new_allocatorI5musicE8allocateEjPKv @5
    _ZN9__gnu_cxx13new_allocatorI5musicE9constructIS1_JS1_EEEvPT_DpOT0_ @6
    _ZN9__gnu_cxx13new_allocatorI5musicEC2ERKS2_ @7
    _ZN9__gnu_cxx13new_allocatorI5musicEC2Ev @8
    _ZN9__gnu_cxx13new_allocatorI5musicED2Ev @9
    _ZN9__gnu_cxx13new_allocatorI5soundE10deallocateEPS1_j @10
    _ZN9__gnu_cxx13new_allocatorI5soundE7destroyIS1_EEvPT_ @11
    _ZN9__gnu_cxx13new_allocatorI5soundE8allocateEjPKv @12
    _ZN9__gnu_cxx13new_allocatorI5soundE9constructIS1_JS1_EEEvPT_DpOT0_ @13
    _ZN9__gnu_cxx13new_allocatorI5soundEC2ERKS2_ @14
    _ZN9__gnu_cxx13new_allocatorI5soundEC2Ev @15
    _ZN9__gnu_cxx13new_allocatorI5soundED2Ev @16
    _ZN9__gnu_cxx14__alloc_traitsISaI5musicEE10_S_on_swapERS2_S4_ @17
    _ZN9__gnu_cxx14__alloc_traitsISaI5soundEE10_S_on_swapERS2_S4_ @18
    _ZN9__gnu_cxx17__normal_iteratorIP5musicSt6vectorIS1_SaIS1_EEEC1ERKS2_ @19
    _ZN9__gnu_cxx17__normal_iteratorIP5soundSt6vectorIS1_SaIS1_EEEC1ERKS2_ @20
    _ZN9__gnu_cxx17__normal_iteratorIPK5musicSt6vectorIS1_SaIS1_EEEC1ERKS3_ @21
    _ZN9__gnu_cxx17__normal_iteratorIPK5musicSt6vectorIS1_SaIS1_EEEC1IPS1_EERKNS0_IT_NS_11__enable_ifIXsrSt10__are_sameISA_S9_E7__valueES6_E6__typeEEE @22
    _ZN9__gnu_cxx17__normal_iteratorIPK5soundSt6vectorIS1_SaIS1_EEEC1ERKS3_ @23
    _ZN9__gnu_cxx17__normal_iteratorIPK5soundSt6vectorIS1_SaIS1_EEEC1IPS1_EERKNS0_IT_NS_11__enable_ifIXsrSt10__are_sameISA_S9_E7__valueES6_E6__typeEEE @24
    _ZN9__gnu_cxxmiIPK5musicSt6vectorIS1_SaIS1_EEEENS_17__normal_iteratorIT_T0_E15difference_typeERKSA_SD_ @25
    _ZN9__gnu_cxxmiIPK5soundSt6vectorIS1_SaIS1_EEEENS_17__normal_iteratorIT_T0_E15difference_typeERKSA_SD_ @26
    _ZN9__gnu_cxxneIP5musicSt6vectorIS1_SaIS1_EEEEbRKNS_17__normal_iteratorIT_T0_EESB_ @27
    _ZN9__gnu_cxxneIP5soundSt6vectorIS1_SaIS1_EEEEbRKNS_17__normal_iteratorIT_T0_EESB_ @28
    _ZN9mixer_bin10halt_musicEv @29
    _ZN9mixer_bin10is_playingEv @30
    _ZN9mixer_bin10music_loadEjPKc @31
    _ZN9mixer_bin10music_playEj @32
    _ZN9mixer_bin10sound_loadEjPKc @33
    _ZN9mixer_bin10sound_playEj @34
    _ZN9mixer_bin11music_clearEj @35
    _ZN9mixer_bin11pause_musicEv @36
    _ZN9mixer_bin11sound_clearEj @37
    _ZN9mixer_bin12resume_musicEv @38
    _ZN9mixer_bin15fade_halt_musicEj @39
    _ZN9mixer_bin15music_fade_playEjj @40
    _ZN9mixer_bin15music_get_loopsEj @41
    _ZN9mixer_bin15music_set_loopsEji @42
    _ZN9mixer_bin15sound_fade_playEji @43
    _ZN9mixer_bin15sound_get_loopsEj @44
    _ZN9mixer_bin15sound_set_loopsEji @45
    _ZN9mixer_bin16music_find_by_IDEi @46
    _ZN9mixer_bin16music_get_activeEj @47
    _ZN9mixer_bin16music_get_volumeEv @48
    _ZN9mixer_bin16music_set_activeEjb @49
    _ZN9mixer_bin16music_set_volumeEh @50
    _ZN9mixer_bin16sound_find_by_IDEi @51
    _ZN9mixer_bin16sound_get_activeEj @52
    _ZN9mixer_bin16sound_get_volumeEj @53
    _ZN9mixer_bin16sound_set_activeEjb @54
    _ZN9mixer_bin16sound_set_volumeEjh @55
    _ZN9mixer_bin17sound_get_channelEj @56
    _ZN9mixer_bin17sound_set_channelEji @57
    _ZN9mixer_bin22audio_media_bin_lengthEv @58
    _ZN9mixer_bin9is_pausedEv @59
    _ZN9mixer_bin9music_newEii @60
    _ZN9mixer_bin9sound_getEi @61
    _ZN9mixer_bin9sound_newEiihi @62
    _ZN9mixer_binC1Ev @63
    _ZN9mixer_binC2Ev @64
    _ZN9mixer_binD1Ev @65
    _ZN9mixer_binD2Ev @66
    _ZNK9__gnu_cxx13new_allocatorI5musicE8max_sizeEv @67
    _ZNK9__gnu_cxx13new_allocatorI5soundE8max_sizeEv @68
    _ZNK9__gnu_cxx17__normal_iteratorIP5musicSt6vectorIS1_SaIS1_EEE4baseEv @69
    _ZNK9__gnu_cxx17__normal_iteratorIP5musicSt6vectorIS1_SaIS1_EEEplEi @70
    _ZNK9__gnu_cxx17__normal_iteratorIP5soundSt6vectorIS1_SaIS1_EEE4baseEv @71
    _ZNK9__gnu_cxx17__normal_iteratorIP5soundSt6vectorIS1_SaIS1_EEEplEi @72
    _ZNK9__gnu_cxx17__normal_iteratorIPK5musicSt6vectorIS1_SaIS1_EEE4baseEv @73
    _ZNK9__gnu_cxx17__normal_iteratorIPK5soundSt6vectorIS1_SaIS1_EEE4baseEv @74
    _ZNKSt12_Vector_baseI5musicSaIS0_EE13get_allocatorEv @75
    _ZNKSt12_Vector_baseI5musicSaIS0_EE19_M_get_Tp_allocatorEv @76
    _ZNKSt12_Vector_baseI5soundSaIS0_EE13get_allocatorEv @77
    _ZNKSt12_Vector_baseI5soundSaIS0_EE19_M_get_Tp_allocatorEv @78
    _ZNKSt13move_iteratorIP5musicE4baseEv @79
    _ZNKSt13move_iteratorIP5musicEdeEv @80
    _ZNKSt13move_iteratorIP5soundE4baseEv @81
    _ZNKSt13move_iteratorIP5soundEdeEv @82
    _ZNKSt6vectorI5musicSaIS0_EE12_M_check_lenEjPKc @83
    _ZNKSt6vectorI5musicSaIS0_EE14_M_range_checkEj @84
    _ZNKSt6vectorI5musicSaIS0_EE4sizeEv @85
    _ZNKSt6vectorI5musicSaIS0_EE6cbeginEv @86
    _ZNKSt6vectorI5musicSaIS0_EE8max_sizeEv @87
    _ZNKSt6vectorI5soundSaIS0_EE12_M_check_lenEjPKc @88
    _ZNKSt6vectorI5soundSaIS0_EE14_M_range_checkEj @89
    _ZNKSt6vectorI5soundSaIS0_EE4sizeEv @90
    _ZNKSt6vectorI5soundSaIS0_EE6cbeginEv @91
    _ZNKSt6vectorI5soundSaIS0_EE8max_sizeEv @92
    _ZNSaI5musicEC1ERKS0_ @93
    _ZNSaI5musicEC2ERKS0_ @94
    _ZNSaI5musicEC2Ev @95
    _ZNSaI5musicED1Ev @96
    _ZNSaI5musicED2Ev @97
    _ZNSaI5soundEC1ERKS0_ @98
    _ZNSaI5soundEC2ERKS0_ @99
    _ZNSaI5soundEC2Ev @100
    _ZNSaI5soundED1Ev @101
    _ZNSaI5soundED2Ev @102
    _ZNSt10_Iter_baseIN9__gnu_cxx17__normal_iteratorIP5musicSt6vectorIS2_SaIS2_EEEELb0EE7_S_baseES7_ @103
    _ZNSt10_Iter_baseIN9__gnu_cxx17__normal_iteratorIP5musicSt6vectorIS2_SaIS2_EEEELb1EE7_S_baseES7_ @104
    _ZNSt10_Iter_baseIN9__gnu_cxx17__normal_iteratorIP5soundSt6vectorIS2_SaIS2_EEEELb0EE7_S_baseES7_ @105
    _ZNSt10_Iter_baseIN9__gnu_cxx17__normal_iteratorIP5soundSt6vectorIS2_SaIS2_EEEELb1EE7_S_baseES7_ @106
    _ZNSt11__copy_moveILb1ELb0ESt26random_access_iterator_tagE8__copy_mIP5musicS4_EET0_T_S6_S5_ @107
    _ZNSt11__copy_moveILb1ELb0ESt26random_access_iterator_tagE8__copy_mIP5soundS4_EET0_T_S6_S5_ @108
    _ZNSt12_Destroy_auxILb0EE9__destroyIP5musicEEvT_S4_ @109
    _ZNSt12_Destroy_auxILb0EE9__destroyIP5soundEEvT_S4_ @110
    _ZNSt12_Vector_baseI5musicSaIS0_EE11_M_allocateEj @111
    _ZNSt12_Vector_baseI5musicSaIS0_EE12_Vector_impl12_M_swap_dataERS3_ @112
    _ZNSt12_Vector_baseI5musicSaIS0_EE12_Vector_implC1ERKS1_ @113
    _ZNSt12_Vector_baseI5musicSaIS0_EE12_Vector_implC1Ev @114
    _ZNSt12_Vector_baseI5musicSaIS0_EE12_Vector_implD1Ev @115
    _ZNSt12_Vector_baseI5musicSaIS0_EE13_M_deallocateEPS0_j @116
    _ZNSt12_Vector_baseI5musicSaIS0_EE19_M_get_Tp_allocatorEv @117
    _ZNSt12_Vector_baseI5musicSaIS0_EEC2ERKS1_ @118
    _ZNSt12_Vector_baseI5musicSaIS0_EEC2Ev @119
    _ZNSt12_Vector_baseI5musicSaIS0_EED2Ev @120
    _ZNSt12_Vector_baseI5soundSaIS0_EE11_M_allocateEj @121
    _ZNSt12_Vector_baseI5soundSaIS0_EE12_Vector_impl12_M_swap_dataERS3_ @122
    _ZNSt12_Vector_baseI5soundSaIS0_EE12_Vector_implC1ERKS1_ @123
    _ZNSt12_Vector_baseI5soundSaIS0_EE12_Vector_implC1Ev @124
    _ZNSt12_Vector_baseI5soundSaIS0_EE12_Vector_implD1Ev @125
    _ZNSt12_Vector_baseI5soundSaIS0_EE13_M_deallocateEPS0_j @126
    _ZNSt12_Vector_baseI5soundSaIS0_EE19_M_get_Tp_allocatorEv @127
    _ZNSt12_Vector_baseI5soundSaIS0_EEC2ERKS1_ @128
    _ZNSt12_Vector_baseI5soundSaIS0_EEC2Ev @129
    _ZNSt12_Vector_baseI5soundSaIS0_EED2Ev @130
    _ZNSt13move_iteratorIP5musicEC1ES1_ @131
    _ZNSt13move_iteratorIP5musicEppEv @132
    _ZNSt13move_iteratorIP5soundEC1ES1_ @133
    _ZNSt13move_iteratorIP5soundEppEv @134
    _ZNSt16allocator_traitsISaI5musicEE10_S_destroyIS0_EENSt9enable_ifIXsrSt6__and_IJNS2_16__destroy_helperIT_E4typeEEE5valueEvE4typeERS1_PS7_ @135
    _ZNSt16allocator_traitsISaI5musicEE10deallocateERS1_PS0_j @136
    _ZNSt16allocator_traitsISaI5musicEE11_S_max_sizeIKS1_vEEjRT_i @137
    _ZNSt16allocator_traitsISaI5musicEE12_S_constructIS0_JS0_EEENSt9enable_ifIXsrSt6__and_IJNS2_18__construct_helperIT_JDpT0_EE4typeEEE5valueEvE4typeERS1_PS7_DpOS8_ @138
    _ZNSt16allocator_traitsISaI5musicEE7destroyIS0_EEvRS1_PT_ @139
    _ZNSt16allocator_traitsISaI5musicEE8allocateERS1_j @140
    _ZNSt16allocator_traitsISaI5musicEE8max_sizeERKS1_ @141
    _ZNSt16allocator_traitsISaI5musicEE9constructIS0_JS0_EEEDTcl12_S_constructfp_fp0_spcl7forwardIT0_Efp1_EEERS1_PT_DpOS4_ @142
    _ZNSt16allocator_traitsISaI5soundEE10_S_destroyIS0_EENSt9enable_ifIXsrSt6__and_IJNS2_16__destroy_helperIT_E4typeEEE5valueEvE4typeERS1_PS7_ @143
    _ZNSt16allocator_traitsISaI5soundEE10deallocateERS1_PS0_j @144
    _ZNSt16allocator_traitsISaI5soundEE11_S_max_sizeIKS1_vEEjRT_i @145
    _ZNSt16allocator_traitsISaI5soundEE12_S_constructIS0_JS0_EEENSt9enable_ifIXsrSt6__and_IJNS2_18__construct_helperIT_JDpT0_EE4typeEEE5valueEvE4typeERS1_PS7_DpOS8_ @146
    _ZNSt16allocator_traitsISaI5soundEE7destroyIS0_EEvRS1_PT_ @147
    _ZNSt16allocator_traitsISaI5soundEE8allocateERS1_j @148
    _ZNSt16allocator_traitsISaI5soundEE8max_sizeERKS1_ @149
    _ZNSt16allocator_traitsISaI5soundEE9constructIS0_JS0_EEEDTcl12_S_constructfp_fp0_spcl7forwardIT0_Efp1_EEERS1_PT_DpOS4_ @150
    _ZNSt20__uninitialized_copyILb0EE13__uninit_copyISt13move_iteratorIP5musicES4_EET0_T_S7_S6_ @151
    _ZNSt20__uninitialized_copyILb0EE13__uninit_copyISt13move_iteratorIP5soundES4_EET0_T_S7_S6_ @152
    _ZNSt6vectorI5musicSaIS0_EE12emplace_backIJS0_EEEvDpOT_ @153
    _ZNSt6vectorI5musicSaIS0_EE14_M_move_assignEOS2_St17integral_constantIbLb1EE @154
    _ZNSt6vectorI5musicSaIS0_EE19_M_emplace_back_auxIJS0_EEEvDpOT_ @155
    _ZNSt6vectorI5musicSaIS0_EE2atEj @156
    _ZNSt6vectorI5musicSaIS0_EE3endEv @157
    _ZNSt6vectorI5musicSaIS0_EE4swapERS2_ @158
    _ZNSt6vectorI5musicSaIS0_EE5beginEv @159
    _ZNSt6vectorI5musicSaIS0_EE5eraseEN9__gnu_cxx17__normal_iteratorIPKS0_S2_EE @160
    _ZNSt6vectorI5musicSaIS0_EE8_M_eraseEN9__gnu_cxx17__normal_iteratorIPS0_S2_EE @161
    _ZNSt6vectorI5musicSaIS0_EE9push_backEOS0_ @162
    _ZNSt6vectorI5musicSaIS0_EEC1ERKS1_ @163
    _ZNSt6vectorI5musicSaIS0_EEC1Ev @164
    _ZNSt6vectorI5musicSaIS0_EED1Ev @165
    _ZNSt6vectorI5musicSaIS0_EEaSEOS2_ @166
    _ZNSt6vectorI5musicSaIS0_EEixEj @167
    _ZNSt6vectorI5soundSaIS0_EE12emplace_backIJS0_EEEvDpOT_ @168
    _ZNSt6vectorI5soundSaIS0_EE14_M_move_assignEOS2_St17integral_constantIbLb1EE @169
    _ZNSt6vectorI5soundSaIS0_EE19_M_emplace_back_auxIJS0_EEEvDpOT_ @170
    _ZNSt6vectorI5soundSaIS0_EE2atEj @171
    _ZNSt6vectorI5soundSaIS0_EE3endEv @172
    _ZNSt6vectorI5soundSaIS0_EE4swapERS2_ @173
    _ZNSt6vectorI5soundSaIS0_EE5beginEv @174
    _ZNSt6vectorI5soundSaIS0_EE5eraseEN9__gnu_cxx17__normal_iteratorIPKS0_S2_EE @175
    _ZNSt6vectorI5soundSaIS0_EE8_M_eraseEN9__gnu_cxx17__normal_iteratorIPS0_S2_EE @176
    _ZNSt6vectorI5soundSaIS0_EE9push_backEOS0_ @177
    _ZNSt6vectorI5soundSaIS0_EEC1ERKS1_ @178
    _ZNSt6vectorI5soundSaIS0_EEC1Ev @179
    _ZNSt6vectorI5soundSaIS0_EED1Ev @180
    _ZNSt6vectorI5soundSaIS0_EEaSEOS2_ @181
    _ZNSt6vectorI5soundSaIS0_EEixEj @182
    _ZSt10_ConstructI5musicJS0_EEvPT_DpOT0_ @183
    _ZSt10_ConstructI5soundJS0_EEvPT_DpOT0_ @184
    _ZSt11__addressofI5musicEPT_RS1_ @185
    _ZSt11__addressofI5soundEPT_RS1_ @186
    _ZSt12__miter_baseIN9__gnu_cxx17__normal_iteratorIP5musicSt6vectorIS2_SaIS2_EEEEENSt11_Miter_baseIT_E13iterator_typeES9_ @187
    _ZSt12__miter_baseIN9__gnu_cxx17__normal_iteratorIP5soundSt6vectorIS2_SaIS2_EEEEENSt11_Miter_baseIT_E13iterator_typeES9_ @188
    _ZSt12__niter_baseIN9__gnu_cxx17__normal_iteratorIP5musicSt6vectorIS2_SaIS2_EEEEENSt11_Niter_baseIT_E13iterator_typeES9_ @189
    _ZSt12__niter_baseIN9__gnu_cxx17__normal_iteratorIP5soundSt6vectorIS2_SaIS2_EEEEENSt11_Niter_baseIT_E13iterator_typeES9_ @190
    _ZSt13__copy_move_aILb1EP5musicS1_ET1_T0_S3_S2_ @191
    _ZSt13__copy_move_aILb1EP5soundS1_ET1_T0_S3_S2_ @192
    _ZSt14__copy_move_a2ILb1EN9__gnu_cxx17__normal_iteratorIP5musicSt6vectorIS2_SaIS2_EEEES7_ET1_T0_S9_S8_ @193
    _ZSt14__copy_move_a2ILb1EN9__gnu_cxx17__normal_iteratorIP5soundSt6vectorIS2_SaIS2_EEEES7_ET1_T0_S9_S8_ @194
    _ZSt15__alloc_on_moveISaI5musicEEvRT_S3_ @195
    _ZSt15__alloc_on_moveISaI5soundEEvRT_S3_ @196
    _ZSt15__alloc_on_swapISaI5musicEEvRT_S3_ @197
    _ZSt15__alloc_on_swapISaI5soundEEvRT_S3_ @198
    _ZSt18__do_alloc_on_moveISaI5musicEEvRT_S3_St17integral_constantIbLb1EE @199
    _ZSt18__do_alloc_on_moveISaI5soundEEvRT_S3_St17integral_constantIbLb1EE @200
    _ZSt18__do_alloc_on_swapISaI5musicEEvRT_S3_St17integral_constantIbLb0EE @201
    _ZSt18__do_alloc_on_swapISaI5soundEEvRT_S3_St17integral_constantIbLb0EE @202
    _ZSt18uninitialized_copyISt13move_iteratorIP5musicES2_ET0_T_S5_S4_ @203
    _ZSt18uninitialized_copyISt13move_iteratorIP5soundES2_ET0_T_S5_S4_ @204
    _ZSt22__uninitialized_copy_aISt13move_iteratorIP5musicES2_S1_ET0_T_S5_S4_RSaIT1_E @205
    _ZSt22__uninitialized_copy_aISt13move_iteratorIP5soundES2_S1_ET0_T_S5_S4_RSaIT1_E @206
    _ZSt32__make_move_if_noexcept_iteratorIP5musicSt13move_iteratorIS1_EET0_T_ @207
    _ZSt32__make_move_if_noexcept_iteratorIP5soundSt13move_iteratorIS1_EET0_T_ @208
    _ZSt34__uninitialized_move_if_noexcept_aIP5musicS1_SaIS0_EET0_T_S4_S3_RT1_ @209
    _ZSt34__uninitialized_move_if_noexcept_aIP5soundS1_SaIS0_EET0_T_S4_S3_RT1_ @210
    _ZSt3maxIjERKT_S2_S2_ @211
    _ZSt4moveIN9__gnu_cxx17__normal_iteratorIP5musicSt6vectorIS2_SaIS2_EEEES7_ET0_T_S9_S8_ @212
    _ZSt4moveIN9__gnu_cxx17__normal_iteratorIP5soundSt6vectorIS2_SaIS2_EEEES7_ET0_T_S9_S8_ @213
    _ZSt4moveIR5musicEONSt16remove_referenceIT_E4typeEOS3_ @214
    _ZSt4moveIR5soundEONSt16remove_referenceIT_E4typeEOS3_ @215
    _ZSt4moveIRP5musicEONSt16remove_referenceIT_E4typeEOS4_ @216
    _ZSt4moveIRP5soundEONSt16remove_referenceIT_E4typeEOS4_ @217
    _ZSt4moveIRSaI5musicEEONSt16remove_referenceIT_E4typeEOS4_ @218
    _ZSt4moveIRSaI5soundEEONSt16remove_referenceIT_E4typeEOS4_ @219
    _ZSt4moveIRSt6vectorI5musicSaIS1_EEEONSt16remove_referenceIT_E4typeEOS6_ @220
    _ZSt4moveIRSt6vectorI5soundSaIS1_EEEONSt16remove_referenceIT_E4typeEOS6_ @221
    _ZSt4swapIP5musicEvRT_S3_ @222
    _ZSt4swapIP5soundEvRT_S3_ @223
    _ZSt7forwardI5musicEOT_RNSt16remove_referenceIS1_E4typeE @224
    _ZSt7forwardI5soundEOT_RNSt16remove_referenceIS1_E4typeE @225
    _ZSt8_DestroyI5musicEvPT_ @226
    _ZSt8_DestroyI5soundEvPT_ @227
    _ZSt8_DestroyIP5musicEvT_S2_ @228
    _ZSt8_DestroyIP5musicS0_EvT_S2_RSaIT0_E @229
    _ZSt8_DestroyIP5soundEvT_S2_ @230
    _ZSt8_DestroyIP5soundS0_EvT_S2_RSaIT0_E @231
    _ZSteqIP5musicEbRKSt13move_iteratorIT_ES6_ @232
    _ZSteqIP5soundEbRKSt13move_iteratorIT_ES6_ @233
    _ZStneIP5musicEbRKSt13move_iteratorIT_ES6_ @234
    _ZStneIP5soundEbRKSt13move_iteratorIT_ES6_ @235
    _ZnwjPv @236
    _get_output_format @237
