EXPORTS
    _ZN13animation_set11get_playingEv @1
    _ZN13animation_set11set_playingEb @2
    _ZN13animation_set15reset_animationENSt7__cxx1112basic_stringIcSt11char_traitsIcESaIcEEE @3
    _ZN13animation_set16update_animationEj @4
    _ZN13animation_set19add_animation_stateENSt7__cxx1112basic_stringIcSt11char_traitsIcESaIcEEEbb @5
    _ZN13animation_set19get_animation_stateB5cxx11Ev @6
    _ZN13animation_set19set_animation_stateENSt7__cxx1112basic_stringIcSt11char_traitsIcESaIcEEE @7
    _ZN13animation_set22add_frame_to_animationENSt7__cxx1112basic_stringIcSt11char_traitsIcESaIcEEEj8SDL_Rect @8
    _ZN13animation_set25get_animation_frame_indexENSt7__cxx1112basic_stringIcSt11char_traitsIcESaIcEEE @9
    _ZN13animation_set9get_frameEv @10
    _ZN13animation_setC1Ev @11
    _ZN13animation_setC2Ev @12
    _ZN13animation_setD1Ev @13
    _ZN13animation_setD2Ev @14
    _ZN16animation_player13add_new_frameEj8SDL_Rect @15
    _ZN16animation_player14animation_playEj @16
    _ZN16animation_player15animation_resetEv @17
    _ZN16animation_player15set_frame_limitEv @18
    _ZN16animation_player16animation_at_endEv @19
    _ZN16animation_player17get_current_frameEv @20
    _ZN16animation_player18set_next_thresholdEv @21
    _ZN16animation_player25animation_get_frame_indexEv @22
    _ZN16animation_playerC1ERKS_ @23
    _ZN16animation_playerC1Ebb @24
    _ZN16animation_playerC2Ebb @25
    _ZN16animation_playerD1Ev @26
    _ZN5alarm11get_warningEv @27
    _ZN5alarm11reset_ticksEv @28
    _ZN5alarm13get_thresholdEv @29
    _ZN5alarm13reset_warningEv @30
    _ZN5alarm13set_thresholdEi @31
    _ZN5alarm9alarm_setEi @32
    _ZN5alarmC1Ei @33
    _ZN5alarmC2Ei @34
    _ZN5alarmD1Ev @35
    _ZN5alarmD2Ev @36
    _ZN5timer10get_pausedEv @37
    _ZN5timer11get_playingEv @38
    _ZN5timer14get_element_IDEv @39
    _ZN5timer14set_element_IDEi @40
    _ZN5timer18compare_element_IDES_ @41
    _ZN5timer4playEv @42
    _ZN5timer4stopEv @43
    _ZN5timer5pauseEv @44
    _ZN5timer5resetEv @45
    _ZN5timer7unpauseEv @46
    _ZN5timer9get_ticksEv @47
    _ZN5timerC1Ei @48
    _ZN5timerC2Ei @49
    _ZN5timerD1Ev @50
    _ZN5timerD2Ev @51
    _ZN9__gnu_cxx13new_allocatorISt13_Rb_tree_nodeISt4pairIKNSt7__cxx1112basic_stringIcSt11char_traitsIcESaIcEEE16animation_playerEEE10deallocateEPSC_j @52
    _ZN9__gnu_cxx13new_allocatorISt13_Rb_tree_nodeISt4pairIKNSt7__cxx1112basic_stringIcSt11char_traitsIcESaIcEEE16animation_playerEEE7destroyISB_EEvPT_ @53
    _ZN9__gnu_cxx13new_allocatorISt13_Rb_tree_nodeISt4pairIKNSt7__cxx1112basic_stringIcSt11char_traitsIcESaIcEEE16animation_playerEEE8allocateEjPKv @54
    _ZN9__gnu_cxx13new_allocatorISt13_Rb_tree_nodeISt4pairIKNSt7__cxx1112basic_stringIcSt11char_traitsIcESaIcEEE16animation_playerEEE9constructISB_JRKSB_EEEvPT_DpOT0_ @55
    _ZN9__gnu_cxx13new_allocatorISt13_Rb_tree_nodeISt4pairIKNSt7__cxx1112basic_stringIcSt11char_traitsIcESaIcEEE16animation_playerEEE9constructISB_JS2_IS8_SA_EEEEvPT_DpOT0_ @56
    _ZN9__gnu_cxx13new_allocatorISt13_Rb_tree_nodeISt4pairIKNSt7__cxx1112basic_stringIcSt11char_traitsIcESaIcEEE16animation_playerEEEC2Ev @57
    _ZN9__gnu_cxx13new_allocatorISt13_Rb_tree_nodeISt4pairIKNSt7__cxx1112basic_stringIcSt11char_traitsIcESaIcEEE16animation_playerEEED2Ev @58
    _ZN9__gnu_cxx13new_allocatorISt4pairIj8SDL_RectEE10deallocateEPS3_j @59
    _ZN9__gnu_cxx13new_allocatorISt4pairIj8SDL_RectEE7destroyIS3_EEvPT_ @60
    _ZN9__gnu_cxx13new_allocatorISt4pairIj8SDL_RectEE8allocateEjPKv @61
    _ZN9__gnu_cxx13new_allocatorISt4pairIj8SDL_RectEE9constructIS3_JS3_EEEvPT_DpOT0_ @62
    _ZN9__gnu_cxx13new_allocatorISt4pairIj8SDL_RectEEC2ERKS4_ @63
    _ZN9__gnu_cxx13new_allocatorISt4pairIj8SDL_RectEEC2Ev @64
    _ZN9__gnu_cxx13new_allocatorISt4pairIj8SDL_RectEED2Ev @65
    _ZN9__gnu_cxx14__alloc_traitsISaISt13_Rb_tree_nodeISt4pairIKNSt7__cxx1112basic_stringIcSt11char_traitsIcESaIcEEE16animation_playerEEEE10_S_on_swapERSD_SF_ @66
    _ZN9__gnu_cxx14__alloc_traitsISaISt13_Rb_tree_nodeISt4pairIKNSt7__cxx1112basic_stringIcSt11char_traitsIcESaIcEEE16animation_playerEEEE15_S_always_equalEv @67
    _ZN9__gnu_cxx14__alloc_traitsISaISt13_Rb_tree_nodeISt4pairIKNSt7__cxx1112basic_stringIcSt11char_traitsIcESaIcEEE16animation_playerEEEE27_S_propagate_on_move_assignEv @68
    _ZN9__gnu_cxx14__alloc_traitsISaISt4pairIj8SDL_RectEEE17_S_select_on_copyERKS4_ @69
    _ZN9__gnu_cxx16__aligned_bufferISt4pairIKNSt7__cxx1112basic_stringIcSt11char_traitsIcESaIcEEE16animation_playerEE6_M_ptrEv @70
    _ZN9__gnu_cxx16__aligned_bufferISt4pairIKNSt7__cxx1112basic_stringIcSt11char_traitsIcESaIcEEE16animation_playerEE7_M_addrEv @71
    _ZN9__gnu_cxx16__aligned_bufferISt4pairIKNSt7__cxx1112basic_stringIcSt11char_traitsIcESaIcEEE16animation_playerEEC1Ev @72
    _ZN9__gnu_cxx17__normal_iteratorIPKSt4pairIj8SDL_RectESt6vectorIS3_SaIS3_EEEC1ERKS5_ @73
    _ZN9__gnu_cxx17__normal_iteratorIPKSt4pairIj8SDL_RectESt6vectorIS3_SaIS3_EEEppEv @74
    _ZN9__gnu_cxxneIPKSt4pairIj8SDL_RectESt6vectorIS3_SaIS3_EEEEbRKNS_17__normal_iteratorIT_T0_EESE_ @75
    _ZNK9__gnu_cxx13new_allocatorISt13_Rb_tree_nodeISt4pairIKNSt7__cxx1112basic_stringIcSt11char_traitsIcESaIcEEE16animation_playerEEE8max_sizeEv @76
    _ZNK9__gnu_cxx13new_allocatorISt4pairIj8SDL_RectEE8max_sizeEv @77
    _ZNK9__gnu_cxx16__aligned_bufferISt4pairIKNSt7__cxx1112basic_stringIcSt11char_traitsIcESaIcEEE16animation_playerEE6_M_ptrEv @78
    _ZNK9__gnu_cxx16__aligned_bufferISt4pairIKNSt7__cxx1112basic_stringIcSt11char_traitsIcESaIcEEE16animation_playerEE7_M_addrEv @79
    _ZNK9__gnu_cxx17__normal_iteratorIPKSt4pairIj8SDL_RectESt6vectorIS3_SaIS3_EEE4baseEv @80
    _ZNK9__gnu_cxx17__normal_iteratorIPKSt4pairIj8SDL_RectESt6vectorIS3_SaIS3_EEEdeEv @81
    _ZNKSt10_Select1stISt4pairIKNSt7__cxx1112basic_stringIcSt11char_traitsIcESaIcEEE16animation_playerEEclERKS9_ @82
    _ZNKSt10_Select1stISt4pairIKNSt7__cxx1112basic_stringIcSt11char_traitsIcESaIcEEE16animation_playerEEclIS0_IS6_S8_EEERNT_10first_typeERSD_ @83
    _ZNKSt12_Vector_baseISt4pairIj8SDL_RectESaIS2_EE19_M_get_Tp_allocatorEv @84
    _ZNKSt13_Rb_tree_nodeISt4pairIKNSt7__cxx1112basic_stringIcSt11char_traitsIcESaIcEEE16animation_playerEE9_M_valptrEv @85
    _ZNKSt13move_iteratorIPSt4pairIj8SDL_RectEE4baseEv @86
    _ZNKSt13move_iteratorIPSt4pairIj8SDL_RectEEdeEv @87
    _ZNKSt17_Rb_tree_iteratorISt4pairIKNSt7__cxx1112basic_stringIcSt11char_traitsIcESaIcEEE16animation_playerEEdeEv @88
    _ZNKSt17_Rb_tree_iteratorISt4pairIKNSt7__cxx1112basic_stringIcSt11char_traitsIcESaIcEEE16animation_playerEEeqERKSA_ @89
    _ZNKSt17_Rb_tree_iteratorISt4pairIKNSt7__cxx1112basic_stringIcSt11char_traitsIcESaIcEEE16animation_playerEEneERKSA_ @90
    _ZNKSt3mapINSt7__cxx1112basic_stringIcSt11char_traitsIcESaIcEEE16animation_playerSt4lessIS5_ESaISt4pairIKS5_S6_EEE8key_compEv @91
    _ZNKSt4lessINSt7__cxx1112basic_stringIcSt11char_traitsIcESaIcEEEEclERKS5_S8_ @92
    _ZNKSt6vectorISt4pairIj8SDL_RectESaIS2_EE12_M_check_lenEjPKc @93
    _ZNKSt6vectorISt4pairIj8SDL_RectESaIS2_EE14_M_range_checkEj @94
    _ZNKSt6vectorISt4pairIj8SDL_RectESaIS2_EE3endEv @95
    _ZNKSt6vectorISt4pairIj8SDL_RectESaIS2_EE4sizeEv @96
    _ZNKSt6vectorISt4pairIj8SDL_RectESaIS2_EE5beginEv @97
    _ZNKSt6vectorISt4pairIj8SDL_RectESaIS2_EE8max_sizeEv @98
    _ZNKSt8_Rb_treeINSt7__cxx1112basic_stringIcSt11char_traitsIcESaIcEEESt4pairIKS5_16animation_playerESt10_Select1stIS9_ESt4lessIS5_ESaIS9_EE11_Alloc_nodeclIS6_IS5_S8_EEEPSt13_Rb_tree_nodeIS9_EOT_ @99
    _ZNKSt8_Rb_treeINSt7__cxx1112basic_stringIcSt11char_traitsIcESaIcEEESt4pairIKS5_16animation_playerESt10_Select1stIS9_ESt4lessIS5_ESaIS9_EE8key_compEv @100
    _ZNSaISt13_Rb_tree_nodeISt4pairIKNSt7__cxx1112basic_stringIcSt11char_traitsIcESaIcEEE16animation_playerEEEC2Ev @101
    _ZNSaISt13_Rb_tree_nodeISt4pairIKNSt7__cxx1112basic_stringIcSt11char_traitsIcESaIcEEE16animation_playerEEED2Ev @102
    _ZNSaISt4pairIj8SDL_RectEEC1ERKS2_ @103
    _ZNSaISt4pairIj8SDL_RectEEC2ERKS2_ @104
    _ZNSaISt4pairIj8SDL_RectEEC2Ev @105
    _ZNSaISt4pairIj8SDL_RectEED1Ev @106
    _ZNSaISt4pairIj8SDL_RectEED2Ev @107
    _ZNSt12_Destroy_auxILb1EE9__destroyIPSt4pairIj8SDL_RectEEEvT_S6_ @108
    _ZNSt12_Vector_baseISt4pairIj8SDL_RectESaIS2_EE11_M_allocateEj @109
    _ZNSt12_Vector_baseISt4pairIj8SDL_RectESaIS2_EE12_Vector_implC1ERKS3_ @110
    _ZNSt12_Vector_baseISt4pairIj8SDL_RectESaIS2_EE12_Vector_implC1Ev @111
    _ZNSt12_Vector_baseISt4pairIj8SDL_RectESaIS2_EE12_Vector_implD1Ev @112
    _ZNSt12_Vector_baseISt4pairIj8SDL_RectESaIS2_EE13_M_deallocateEPS2_j @113
    _ZNSt12_Vector_baseISt4pairIj8SDL_RectESaIS2_EE17_M_create_storageEj @114
    _ZNSt12_Vector_baseISt4pairIj8SDL_RectESaIS2_EE19_M_get_Tp_allocatorEv @115
    _ZNSt12_Vector_baseISt4pairIj8SDL_RectESaIS2_EEC2EjRKS3_ @116
    _ZNSt12_Vector_baseISt4pairIj8SDL_RectESaIS2_EEC2Ev @117
    _ZNSt12_Vector_baseISt4pairIj8SDL_RectESaIS2_EED2Ev @118
    _ZNSt12out_of_rangeC1ERKS_ @119
    _ZNSt13_Rb_tree_nodeISt4pairIKNSt7__cxx1112basic_stringIcSt11char_traitsIcESaIcEEE16animation_playerEE9_M_valptrEv @120
    _ZNSt13_Rb_tree_nodeISt4pairIKNSt7__cxx1112basic_stringIcSt11char_traitsIcESaIcEEE16animation_playerEEC1Ev @121
    _ZNSt13move_iteratorIPSt4pairIj8SDL_RectEEC1ES3_ @122
    _ZNSt13move_iteratorIPSt4pairIj8SDL_RectEEppEv @123
    _ZNSt15aligned_storageILj56ELj4EEC2Ev @124
    _ZNSt16allocator_traitsISaISt13_Rb_tree_nodeISt4pairIKNSt7__cxx1112basic_stringIcSt11char_traitsIcESaIcEEE16animation_playerEEEE10_S_destroyISA_EENSt9enable_ifIXsrSt6__and_IJNSD_16__destroy_helperIT_E4typeEEE5valueEvE4typeERSC_PSI_ @125
    _ZNSt16allocator_traitsISaISt13_Rb_tree_nodeISt4pairIKNSt7__cxx1112basic_stringIcSt11char_traitsIcESaIcEEE16animation_playerEEEE10deallocateERSC_PSB_j @126
    _ZNSt16allocator_traitsISaISt13_Rb_tree_nodeISt4pairIKNSt7__cxx1112basic_stringIcSt11char_traitsIcESaIcEEE16animation_playerEEEE12_S_constructISA_JRKSA_EEENSt9enable_ifIXsrSt6__and_IJNSD_18__construct_helperIT_JDpT0_EE4typeEEE5valueEvE4typeERSC_PSK_DpOSL_ @127
    _ZNSt16allocator_traitsISaISt13_Rb_tree_nodeISt4pairIKNSt7__cxx1112basic_stringIcSt11char_traitsIcESaIcEEE16animation_playerEEEE12_S_constructISA_JS1_IS7_S9_EEEENSt9enable_ifIXsrSt6__and_IJNSD_18__construct_helperIT_JDpT0_EE4typeEEE5valueEvE4typeERSC_PSJ_DpOSK_ @128
    _ZNSt16allocator_traitsISaISt13_Rb_tree_nodeISt4pairIKNSt7__cxx1112basic_stringIcSt11char_traitsIcESaIcEEE16animation_playerEEEE7destroyISA_EEvRSC_PT_ @129
    _ZNSt16allocator_traitsISaISt13_Rb_tree_nodeISt4pairIKNSt7__cxx1112basic_stringIcSt11char_traitsIcESaIcEEE16animation_playerEEEE8allocateERSC_j @130
    _ZNSt16allocator_traitsISaISt13_Rb_tree_nodeISt4pairIKNSt7__cxx1112basic_stringIcSt11char_traitsIcESaIcEEE16animation_playerEEEE9constructISA_JRKSA_EEEDTcl12_S_constructfp_fp0_spcl7forwardIT0_Efp1_EEERSC_PT_DpOSH_ @131
    _ZNSt16allocator_traitsISaISt13_Rb_tree_nodeISt4pairIKNSt7__cxx1112basic_stringIcSt11char_traitsIcESaIcEEE16animation_playerEEEE9constructISA_JS1_IS7_S9_EEEEDTcl12_S_constructfp_fp0_spcl7forwardIT0_Efp1_EEERSC_PT_DpOSG_ @132
    _ZNSt16allocator_traitsISaISt4pairIj8SDL_RectEEE10_S_destroyIS2_EENSt9enable_ifIXsrSt6__and_IJNS4_16__destroy_helperIT_E4typeEEE5valueEvE4typeERS3_PS9_ @133
    _ZNSt16allocator_traitsISaISt4pairIj8SDL_RectEEE10deallocateERS3_PS2_j @134
    _ZNSt16allocator_traitsISaISt4pairIj8SDL_RectEEE11_S_max_sizeIKS3_vEEjRT_i @135
    _ZNSt16allocator_traitsISaISt4pairIj8SDL_RectEEE12_S_constructIS2_JS2_EEENSt9enable_ifIXsrSt6__and_IJNS4_18__construct_helperIT_JDpT0_EE4typeEEE5valueEvE4typeERS3_PS9_DpOSA_ @136
    _ZNSt16allocator_traitsISaISt4pairIj8SDL_RectEEE37select_on_container_copy_constructionERKS3_ @137
    _ZNSt16allocator_traitsISaISt4pairIj8SDL_RectEEE7destroyIS2_EEvRS3_PT_ @138
    _ZNSt16allocator_traitsISaISt4pairIj8SDL_RectEEE8allocateERS3_j @139
    _ZNSt16allocator_traitsISaISt4pairIj8SDL_RectEEE8max_sizeERKS3_ @140
    _ZNSt16allocator_traitsISaISt4pairIj8SDL_RectEEE9_S_selectIKS3_vEET_RS7_z @141
    _ZNSt16allocator_traitsISaISt4pairIj8SDL_RectEEE9constructIS2_JS2_EEEDTcl12_S_constructfp_fp0_spcl7forwardIT0_Efp1_EEERS3_PT_DpOS6_ @142
    _ZNSt17_Rb_tree_iteratorISt4pairIKNSt7__cxx1112basic_stringIcSt11char_traitsIcESaIcEEE16animation_playerEEC1EPSt13_Rb_tree_nodeIS9_E @143
    _ZNSt17_Rb_tree_iteratorISt4pairIKNSt7__cxx1112basic_stringIcSt11char_traitsIcESaIcEEE16animation_playerEEmmEv @144
    _ZNSt18_Rb_tree_node_base10_S_maximumEPS_ @145
    _ZNSt18_Rb_tree_node_base10_S_minimumEPS_ @146
    _ZNSt18_Rb_tree_node_baseC2Ev @147
    _ZNSt20__uninitialized_copyILb0EE13__uninit_copyIN9__gnu_cxx17__normal_iteratorIPKSt4pairIj8SDL_RectESt6vectorIS6_SaIS6_EEEEPS6_EET0_T_SF_SE_ @148
    _ZNSt20__uninitialized_copyILb0EE13__uninit_copyISt13move_iteratorIPSt4pairIj8SDL_RectEES6_EET0_T_S9_S8_ @149
    _ZNSt3mapINSt7__cxx1112basic_stringIcSt11char_traitsIcESaIcEEE16animation_playerSt4lessIS5_ESaISt4pairIKS5_S6_EEE11lower_boundERSA_ @150
    _ZNSt3mapINSt7__cxx1112basic_stringIcSt11char_traitsIcESaIcEEE16animation_playerSt4lessIS5_ESaISt4pairIKS5_S6_EEE2atERSA_ @151
    _ZNSt3mapINSt7__cxx1112basic_stringIcSt11char_traitsIcESaIcEEE16animation_playerSt4lessIS5_ESaISt4pairIKS5_S6_EEE3endEv @152
    _ZNSt3mapINSt7__cxx1112basic_stringIcSt11char_traitsIcESaIcEEE16animation_playerSt4lessIS5_ESaISt4pairIKS5_S6_EEE4findERSA_ @153
    _ZNSt3mapINSt7__cxx1112basic_stringIcSt11char_traitsIcESaIcEEE16animation_playerSt4lessIS5_ESaISt4pairIKS5_S6_EEE4swapERSD_ @154
    _ZNSt3mapINSt7__cxx1112basic_stringIcSt11char_traitsIcESaIcEEE16animation_playerSt4lessIS5_ESaISt4pairIKS5_S6_EEE6insertIS9_IS5_S6_EvEES9_ISt17_Rb_tree_iteratorISB_EbEOT_ @155
    _ZNSt3mapINSt7__cxx1112basic_stringIcSt11char_traitsIcESaIcEEE16animation_playerSt4lessIS5_ESaISt4pairIKS5_S6_EEEC1Ev @156
    _ZNSt3mapINSt7__cxx1112basic_stringIcSt11char_traitsIcESaIcEEE16animation_playerSt4lessIS5_ESaISt4pairIKS5_S6_EEED1Ev @157
    _ZNSt3mapINSt7__cxx1112basic_stringIcSt11char_traitsIcESaIcEEE16animation_playerSt4lessIS5_ESaISt4pairIKS5_S6_EEEaSEOSD_ @158
    _ZNSt4pairIKNSt7__cxx1112basic_stringIcSt11char_traitsIcESaIcEEE16animation_playerEC1ERKS8_ @159
    _ZNSt4pairIKNSt7__cxx1112basic_stringIcSt11char_traitsIcESaIcEEE16animation_playerEC1IS5_S7_vEEOS_IT_T0_E @160
    _ZNSt4pairIKNSt7__cxx1112basic_stringIcSt11char_traitsIcESaIcEEE16animation_playerED1Ev @161
    _ZNSt4pairINSt7__cxx1112basic_stringIcSt11char_traitsIcESaIcEEE16animation_playerEC1IRS5_S6_vEEOT_OT0_ @162
    _ZNSt4pairINSt7__cxx1112basic_stringIcSt11char_traitsIcESaIcEEE16animation_playerED1Ev @163
    _ZNSt4pairIPSt18_Rb_tree_node_baseS1_EC1IRPSt13_Rb_tree_nodeIS_IKNSt7__cxx1112basic_stringIcSt11char_traitsIcESaIcEEE16animation_playerEESG_vEEOT_OT0_ @164
    _ZNSt4pairIPSt18_Rb_tree_node_baseS1_EC1IRS1_vEEOT_RKS1_ @165
    _ZNSt4pairISt17_Rb_tree_iteratorIS_IKNSt7__cxx1112basic_stringIcSt11char_traitsIcESaIcEEE16animation_playerEEbEC1ISA_bvEEOT_OT0_ @166
    _ZNSt4pairIj8SDL_RectEC1IRjRS0_vEEOT_OT0_ @167
    _ZNSt6vectorISt4pairIj8SDL_RectESaIS2_EE12emplace_backIJS2_EEEvDpOT_ @168
    _ZNSt6vectorISt4pairIj8SDL_RectESaIS2_EE19_M_emplace_back_auxIJS2_EEEvDpOT_ @169
    _ZNSt6vectorISt4pairIj8SDL_RectESaIS2_EE2atEj @170
    _ZNSt6vectorISt4pairIj8SDL_RectESaIS2_EE9push_backEOS2_ @171
    _ZNSt6vectorISt4pairIj8SDL_RectESaIS2_EEC1ERKS4_ @172
    _ZNSt6vectorISt4pairIj8SDL_RectESaIS2_EEC1Ev @173
    _ZNSt6vectorISt4pairIj8SDL_RectESaIS2_EED1Ev @174
    _ZNSt6vectorISt4pairIj8SDL_RectESaIS2_EEixEj @175
    _ZNSt8_Rb_treeINSt7__cxx1112basic_stringIcSt11char_traitsIcESaIcEEESt4pairIKS5_16animation_playerESt10_Select1stIS9_ESt4lessIS5_ESaIS9_EE10_M_insert_IS6_IS5_S8_ENSF_11_Alloc_nodeEEESt17_Rb_tree_iteratorIS9_EPSt18_Rb_tree_node_baseSM_OT_RT0_ @176
    _ZNSt8_Rb_treeINSt7__cxx1112basic_stringIcSt11char_traitsIcESaIcEEESt4pairIKS5_16animation_playerESt10_Select1stIS9_ESt4lessIS5_ESaIS9_EE10_S_maximumEPSt18_Rb_tree_node_base @177
    _ZNSt8_Rb_treeINSt7__cxx1112basic_stringIcSt11char_traitsIcESaIcEEESt4pairIKS5_16animation_playerESt10_Select1stIS9_ESt4lessIS5_ESaIS9_EE10_S_minimumEPSt18_Rb_tree_node_base @178
    _ZNSt8_Rb_treeINSt7__cxx1112basic_stringIcSt11char_traitsIcESaIcEEESt4pairIKS5_16animation_playerESt10_Select1stIS9_ESt4lessIS5_ESaIS9_EE11_Alloc_nodeC1ERSF_ @179
    _ZNSt8_Rb_treeINSt7__cxx1112basic_stringIcSt11char_traitsIcESaIcEEESt4pairIKS5_16animation_playerESt10_Select1stIS9_ESt4lessIS5_ESaIS9_EE11_M_get_nodeEv @180
    _ZNSt8_Rb_treeINSt7__cxx1112basic_stringIcSt11char_traitsIcESaIcEEESt4pairIKS5_16animation_playerESt10_Select1stIS9_ESt4lessIS5_ESaIS9_EE11_M_leftmostEv @181
    _ZNSt8_Rb_treeINSt7__cxx1112basic_stringIcSt11char_traitsIcESaIcEEESt4pairIKS5_16animation_playerESt10_Select1stIS9_ESt4lessIS5_ESaIS9_EE11_M_put_nodeEPSt13_Rb_tree_nodeIS9_E @182
    _ZNSt8_Rb_treeINSt7__cxx1112basic_stringIcSt11char_traitsIcESaIcEEESt4pairIKS5_16animation_playerESt10_Select1stIS9_ESt4lessIS5_ESaIS9_EE11lower_boundERS7_ @183
    _ZNSt8_Rb_treeINSt7__cxx1112basic_stringIcSt11char_traitsIcESaIcEEESt4pairIKS5_16animation_playerESt10_Select1stIS9_ESt4lessIS5_ESaIS9_EE12_M_drop_nodeEPSt13_Rb_tree_nodeIS9_E @184
    _ZNSt8_Rb_treeINSt7__cxx1112basic_stringIcSt11char_traitsIcESaIcEEESt4pairIKS5_16animation_playerESt10_Select1stIS9_ESt4lessIS5_ESaIS9_EE12_M_move_dataERSF_St17integral_constantIbLb1EE @185
    _ZNSt8_Rb_treeINSt7__cxx1112basic_stringIcSt11char_traitsIcESaIcEEESt4pairIKS5_16animation_playerESt10_Select1stIS9_ESt4lessIS5_ESaIS9_EE12_M_rightmostEv @186
    _ZNSt8_Rb_treeINSt7__cxx1112basic_stringIcSt11char_traitsIcESaIcEEESt4pairIKS5_16animation_playerESt10_Select1stIS9_ESt4lessIS5_ESaIS9_EE13_M_clone_nodeIZNSF_aSEOSF_EUlRKS9_E_EEPSt13_Rb_tree_nodeIS9_EPKSM_RT_ @187
    _ZNSt8_Rb_treeINSt7__cxx1112basic_stringIcSt11char_traitsIcESaIcEEESt4pairIKS5_16animation_playerESt10_Select1stIS9_ESt4lessIS5_ESaIS9_EE13_Rb_tree_implISD_Lb1EE13_M_initializeEv @188
    _ZNSt8_Rb_treeINSt7__cxx1112basic_stringIcSt11char_traitsIcESaIcEEESt4pairIKS5_16animation_playerESt10_Select1stIS9_ESt4lessIS5_ESaIS9_EE13_Rb_tree_implISD_Lb1EE8_M_resetEv @189
    _ZNSt8_Rb_treeINSt7__cxx1112basic_stringIcSt11char_traitsIcESaIcEEESt4pairIKS5_16animation_playerESt10_Select1stIS9_ESt4lessIS5_ESaIS9_EE13_Rb_tree_implISD_Lb1EEC1Ev @190
    _ZNSt8_Rb_treeINSt7__cxx1112basic_stringIcSt11char_traitsIcESaIcEEESt4pairIKS5_16animation_playerESt10_Select1stIS9_ESt4lessIS5_ESaIS9_EE13_Rb_tree_implISD_Lb1EED1Ev @191
    _ZNSt8_Rb_treeINSt7__cxx1112basic_stringIcSt11char_traitsIcESaIcEEESt4pairIKS5_16animation_playerESt10_Select1stIS9_ESt4lessIS5_ESaIS9_EE14_M_create_nodeIJRKS9_EEEPSt13_Rb_tree_nodeIS9_EDpOT_ @192
    _ZNSt8_Rb_treeINSt7__cxx1112basic_stringIcSt11char_traitsIcESaIcEEESt4pairIKS5_16animation_playerESt10_Select1stIS9_ESt4lessIS5_ESaIS9_EE14_M_create_nodeIJS6_IS5_S8_EEEEPSt13_Rb_tree_nodeIS9_EDpOT_ @193
    _ZNSt8_Rb_treeINSt7__cxx1112basic_stringIcSt11char_traitsIcESaIcEEESt4pairIKS5_16animation_playerESt10_Select1stIS9_ESt4lessIS5_ESaIS9_EE14_M_lower_boundEPSt13_Rb_tree_nodeIS9_ESI_RS7_ @194
    _ZNSt8_Rb_treeINSt7__cxx1112basic_stringIcSt11char_traitsIcESaIcEEESt4pairIKS5_16animation_playerESt10_Select1stIS9_ESt4lessIS5_ESaIS9_EE15_M_destroy_nodeEPSt13_Rb_tree_nodeIS9_E @195
    _ZNSt8_Rb_treeINSt7__cxx1112basic_stringIcSt11char_traitsIcESaIcEEESt4pairIKS5_16animation_playerESt10_Select1stIS9_ESt4lessIS5_ESaIS9_EE16_M_insert_uniqueIS6_IS5_S8_EEES6_ISt17_Rb_tree_iteratorIS9_EbEOT_ @196
    _ZNSt8_Rb_treeINSt7__cxx1112basic_stringIcSt11char_traitsIcESaIcEEESt4pairIKS5_16animation_playerESt10_Select1stIS9_ESt4lessIS5_ESaIS9_EE17_M_construct_nodeIJRKS9_EEEvPSt13_Rb_tree_nodeIS9_EDpOT_ @197
    _ZNSt8_Rb_treeINSt7__cxx1112basic_stringIcSt11char_traitsIcESaIcEEESt4pairIKS5_16animation_playerESt10_Select1stIS9_ESt4lessIS5_ESaIS9_EE17_M_construct_nodeIJS6_IS5_S8_EEEEvPSt13_Rb_tree_nodeIS9_EDpOT_ @198
    _ZNSt8_Rb_treeINSt7__cxx1112basic_stringIcSt11char_traitsIcESaIcEEESt4pairIKS5_16animation_playerESt10_Select1stIS9_ESt4lessIS5_ESaIS9_EE20_Reuse_or_alloc_node10_M_extractEv @199
    _ZNSt8_Rb_treeINSt7__cxx1112basic_stringIcSt11char_traitsIcESaIcEEESt4pairIKS5_16animation_playerESt10_Select1stIS9_ESt4lessIS5_ESaIS9_EE20_Reuse_or_alloc_nodeC1ERSF_ @200
    _ZNSt8_Rb_treeINSt7__cxx1112basic_stringIcSt11char_traitsIcESaIcEEESt4pairIKS5_16animation_playerESt10_Select1stIS9_ESt4lessIS5_ESaIS9_EE20_Reuse_or_alloc_nodeD1Ev @201
    _ZNSt8_Rb_treeINSt7__cxx1112basic_stringIcSt11char_traitsIcESaIcEEESt4pairIKS5_16animation_playerESt10_Select1stIS9_ESt4lessIS5_ESaIS9_EE20_Reuse_or_alloc_nodeclIRKS9_EEPSt13_Rb_tree_nodeIS9_EOT_ @202
    _ZNSt8_Rb_treeINSt7__cxx1112basic_stringIcSt11char_traitsIcESaIcEEESt4pairIKS5_16animation_playerESt10_Select1stIS9_ESt4lessIS5_ESaIS9_EE21_M_get_Node_allocatorEv @203
    _ZNSt8_Rb_treeINSt7__cxx1112basic_stringIcSt11char_traitsIcESaIcEEESt4pairIKS5_16animation_playerESt10_Select1stIS9_ESt4lessIS5_ESaIS9_EE24_M_get_insert_unique_posERS7_ @204
    _ZNSt8_Rb_treeINSt7__cxx1112basic_stringIcSt11char_traitsIcESaIcEEESt4pairIKS5_16animation_playerESt10_Select1stIS9_ESt4lessIS5_ESaIS9_EE3endEv @205
    _ZNSt8_Rb_treeINSt7__cxx1112basic_stringIcSt11char_traitsIcESaIcEEESt4pairIKS5_16animation_playerESt10_Select1stIS9_ESt4lessIS5_ESaIS9_EE4findERS7_ @206
    _ZNSt8_Rb_treeINSt7__cxx1112basic_stringIcSt11char_traitsIcESaIcEEESt4pairIKS5_16animation_playerESt10_Select1stIS9_ESt4lessIS5_ESaIS9_EE4swapERSF_ @207
    _ZNSt8_Rb_treeINSt7__cxx1112basic_stringIcSt11char_traitsIcESaIcEEESt4pairIKS5_16animation_playerESt10_Select1stIS9_ESt4lessIS5_ESaIS9_EE5beginEv @208
    _ZNSt8_Rb_treeINSt7__cxx1112basic_stringIcSt11char_traitsIcESaIcEEESt4pairIKS5_16animation_playerESt10_Select1stIS9_ESt4lessIS5_ESaIS9_EE5clearEv @209
    _ZNSt8_Rb_treeINSt7__cxx1112basic_stringIcSt11char_traitsIcESaIcEEESt4pairIKS5_16animation_playerESt10_Select1stIS9_ESt4lessIS5_ESaIS9_EE6_M_endEv @210
    _ZNSt8_Rb_treeINSt7__cxx1112basic_stringIcSt11char_traitsIcESaIcEEESt4pairIKS5_16animation_playerESt10_Select1stIS9_ESt4lessIS5_ESaIS9_EE6_S_keyEPKSt13_Rb_tree_nodeIS9_E @211
    _ZNSt8_Rb_treeINSt7__cxx1112basic_stringIcSt11char_traitsIcESaIcEEESt4pairIKS5_16animation_playerESt10_Select1stIS9_ESt4lessIS5_ESaIS9_EE6_S_keyEPKSt18_Rb_tree_node_base @212
    _ZNSt8_Rb_treeINSt7__cxx1112basic_stringIcSt11char_traitsIcESaIcEEESt4pairIKS5_16animation_playerESt10_Select1stIS9_ESt4lessIS5_ESaIS9_EE7_M_copyIZNSF_aSEOSF_EUlRKS9_E_EEPSt13_Rb_tree_nodeIS9_EPKSM_SN_RT_ @213
    _ZNSt8_Rb_treeINSt7__cxx1112basic_stringIcSt11char_traitsIcESaIcEEESt4pairIKS5_16animation_playerESt10_Select1stIS9_ESt4lessIS5_ESaIS9_EE7_M_rootEv @214
    _ZNSt8_Rb_treeINSt7__cxx1112basic_stringIcSt11char_traitsIcESaIcEEESt4pairIKS5_16animation_playerESt10_Select1stIS9_ESt4lessIS5_ESaIS9_EE7_S_leftEPKSt18_Rb_tree_node_base @215
    _ZNSt8_Rb_treeINSt7__cxx1112basic_stringIcSt11char_traitsIcESaIcEEESt4pairIKS5_16animation_playerESt10_Select1stIS9_ESt4lessIS5_ESaIS9_EE7_S_leftEPSt18_Rb_tree_node_base @216
    _ZNSt8_Rb_treeINSt7__cxx1112basic_stringIcSt11char_traitsIcESaIcEEESt4pairIKS5_16animation_playerESt10_Select1stIS9_ESt4lessIS5_ESaIS9_EE8_M_beginEv @217
    _ZNSt8_Rb_treeINSt7__cxx1112basic_stringIcSt11char_traitsIcESaIcEEESt4pairIKS5_16animation_playerESt10_Select1stIS9_ESt4lessIS5_ESaIS9_EE8_M_eraseEPSt13_Rb_tree_nodeIS9_E @218
    _ZNSt8_Rb_treeINSt7__cxx1112basic_stringIcSt11char_traitsIcESaIcEEESt4pairIKS5_16animation_playerESt10_Select1stIS9_ESt4lessIS5_ESaIS9_EE8_S_rightEPKSt18_Rb_tree_node_base @219
    _ZNSt8_Rb_treeINSt7__cxx1112basic_stringIcSt11char_traitsIcESaIcEEESt4pairIKS5_16animation_playerESt10_Select1stIS9_ESt4lessIS5_ESaIS9_EE8_S_rightEPSt18_Rb_tree_node_base @220
    _ZNSt8_Rb_treeINSt7__cxx1112basic_stringIcSt11char_traitsIcESaIcEEESt4pairIKS5_16animation_playerESt10_Select1stIS9_ESt4lessIS5_ESaIS9_EE8_S_valueEPKSt13_Rb_tree_nodeIS9_E @221
    _ZNSt8_Rb_treeINSt7__cxx1112basic_stringIcSt11char_traitsIcESaIcEEESt4pairIKS5_16animation_playerESt10_Select1stIS9_ESt4lessIS5_ESaIS9_EE8_S_valueEPKSt18_Rb_tree_node_base @222
    _ZNSt8_Rb_treeINSt7__cxx1112basic_stringIcSt11char_traitsIcESaIcEEESt4pairIKS5_16animation_playerESt10_Select1stIS9_ESt4lessIS5_ESaIS9_EEC1Ev @223
    _ZNSt8_Rb_treeINSt7__cxx1112basic_stringIcSt11char_traitsIcESaIcEEESt4pairIKS5_16animation_playerESt10_Select1stIS9_ESt4lessIS5_ESaIS9_EED1Ev @224
    _ZNSt8_Rb_treeINSt7__cxx1112basic_stringIcSt11char_traitsIcESaIcEEESt4pairIKS5_16animation_playerESt10_Select1stIS9_ESt4lessIS5_ESaIS9_EEaSEOSF_ @225
    _ZSt10_ConstructISt4pairIj8SDL_RectEJRKS2_EEvPT_DpOT0_ @226
    _ZSt10_ConstructISt4pairIj8SDL_RectEJS2_EEvPT_DpOT0_ @227
    _ZSt11__addressofISt4pairIj8SDL_RectEEPT_RS3_ @228
    _ZSt15__alloc_on_moveISaISt13_Rb_tree_nodeISt4pairIKNSt7__cxx1112basic_stringIcSt11char_traitsIcESaIcEEE16animation_playerEEEEvRT_SE_ @229
    _ZSt15__alloc_on_swapISaISt13_Rb_tree_nodeISt4pairIKNSt7__cxx1112basic_stringIcSt11char_traitsIcESaIcEEE16animation_playerEEEEvRT_SE_ @230
    _ZSt16move_if_noexceptISt4pairIKNSt7__cxx1112basic_stringIcSt11char_traitsIcESaIcEEE16animation_playerEENSt11conditionalIXsrSt23__move_if_noexcept_condIT_E5valueERKSC_OSC_E4typeERSC_ @231
    _ZSt18__do_alloc_on_moveISaISt13_Rb_tree_nodeISt4pairIKNSt7__cxx1112basic_stringIcSt11char_traitsIcESaIcEEE16animation_playerEEEEvRT_SE_St17integral_constantIbLb1EE @232
    _ZSt18__do_alloc_on_swapISaISt13_Rb_tree_nodeISt4pairIKNSt7__cxx1112basic_stringIcSt11char_traitsIcESaIcEEE16animation_playerEEEEvRT_SE_St17integral_constantIbLb0EE @233
    _ZSt18uninitialized_copyIN9__gnu_cxx17__normal_iteratorIPKSt4pairIj8SDL_RectESt6vectorIS4_SaIS4_EEEEPS4_ET0_T_SD_SC_ @234
    _ZSt18uninitialized_copyISt13move_iteratorIPSt4pairIj8SDL_RectEES4_ET0_T_S7_S6_ @235
    _ZSt22__uninitialized_copy_aIN9__gnu_cxx17__normal_iteratorIPKSt4pairIj8SDL_RectESt6vectorIS4_SaIS4_EEEEPS4_S4_ET0_T_SD_SC_RSaIT1_E @236
    _ZSt22__uninitialized_copy_aISt13move_iteratorIPSt4pairIj8SDL_RectEES4_S3_ET0_T_S7_S6_RSaIT1_E @237
    _ZSt32__make_move_if_noexcept_iteratorIPSt4pairIj8SDL_RectESt13move_iteratorIS3_EET0_T_ @238
    _ZSt34__uninitialized_move_if_noexcept_aIPSt4pairIj8SDL_RectES3_SaIS2_EET0_T_S6_S5_RT1_ @239
    _ZSt3maxIjERKT_S2_S2_ @240
    _ZSt4moveIRPSt18_Rb_tree_node_baseEONSt16remove_referenceIT_E4typeEOS4_ @241
    _ZSt4moveIRSaISt13_Rb_tree_nodeISt4pairIKNSt7__cxx1112basic_stringIcSt11char_traitsIcESaIcEEE16animation_playerEEEEONSt16remove_referenceIT_E4typeEOSF_ @242
    _ZSt4moveIRSt4lessINSt7__cxx1112basic_stringIcSt11char_traitsIcESaIcEEEEEONSt16remove_referenceIT_E4typeEOSA_ @243
    _ZSt4moveIRSt4pairIKNSt7__cxx1112basic_stringIcSt11char_traitsIcESaIcEEE16animation_playerEEONSt16remove_referenceIT_E4typeEOSC_ @244
    _ZSt4moveIRSt4pairIj8SDL_RectEEONSt16remove_referenceIT_E4typeEOS5_ @245
    _ZSt4moveIRjEONSt16remove_referenceIT_E4typeEOS2_ @246
    _ZSt4swapIPSt18_Rb_tree_node_baseEvRT_S3_ @247
    _ZSt4swapISt4lessINSt7__cxx1112basic_stringIcSt11char_traitsIcESaIcEEEEEvRT_S9_ @248
    _ZSt4swapIjEvRT_S1_ @249
    _ZSt7forwardI16animation_playerEOT_RNSt16remove_referenceIS1_E4typeE @250
    _ZSt7forwardINSt7__cxx1112basic_stringIcSt11char_traitsIcESaIcEEEEOT_RNSt16remove_referenceIS6_E4typeE @251
    _ZSt7forwardIR8SDL_RectEOT_RNSt16remove_referenceIS2_E4typeE @252
    _ZSt7forwardIRKSt4pairIKNSt7__cxx1112basic_stringIcSt11char_traitsIcESaIcEEE16animation_playerEEOT_RNSt16remove_referenceISC_E4typeE @253
    _ZSt7forwardIRKSt4pairIj8SDL_RectEEOT_RNSt16remove_referenceIS5_E4typeE @254
    _ZSt7forwardIRNSt7__cxx1112basic_stringIcSt11char_traitsIcESaIcEEEEOT_RNSt16remove_referenceIS7_E4typeE @255
    _ZSt7forwardIRPSt13_Rb_tree_nodeISt4pairIKNSt7__cxx1112basic_stringIcSt11char_traitsIcESaIcEEE16animation_playerEEEOT_RNSt16remove_referenceISE_E4typeE @256
    _ZSt7forwardIRPSt18_Rb_tree_node_baseEOT_RNSt16remove_referenceIS3_E4typeE @257
    _ZSt7forwardIRjEOT_RNSt16remove_referenceIS1_E4typeE @258
    _ZSt7forwardISt17_Rb_tree_iteratorISt4pairIKNSt7__cxx1112basic_stringIcSt11char_traitsIcESaIcEEE16animation_playerEEEOT_RNSt16remove_referenceISC_E4typeE @259
    _ZSt7forwardISt4pairINSt7__cxx1112basic_stringIcSt11char_traitsIcESaIcEEE16animation_playerEEOT_RNSt16remove_referenceIS9_E4typeE @260
    _ZSt7forwardISt4pairIj8SDL_RectEEOT_RNSt16remove_referenceIS3_E4typeE @261
    _ZSt7forwardIbEOT_RNSt16remove_referenceIS0_E4typeE @262
    _ZSt8_DestroyIPSt4pairIj8SDL_RectEEvT_S4_ @263
    _ZSt8_DestroyIPSt4pairIj8SDL_RectES2_EvT_S4_RSaIT0_E @264
    _ZSteqIPSt4pairIj8SDL_RectEEbRKSt13move_iteratorIT_ES8_ @265
    _ZSteqISt13_Rb_tree_nodeISt4pairIKNSt7__cxx1112basic_stringIcSt11char_traitsIcESaIcEEE16animation_playerEEEbRKSaIT_ESF_ @266
    _ZStltIcSt11char_traitsIcESaIcEEbRKNSt7__cxx1112basic_stringIT_T0_T1_EESA_ @267
    _ZStneIPSt4pairIj8SDL_RectEEbRKSt13move_iteratorIT_ES8_ @268
    _ZTISt11logic_error @269 DATA
    _ZTISt12out_of_range @270 DATA
    _ZTISt9exception @271 DATA
    _ZTSSt11logic_error @272 DATA
    _ZTSSt12out_of_range @273 DATA
    _ZTSSt9exception @274 DATA
    _ZZNSt8_Rb_treeINSt7__cxx1112basic_stringIcSt11char_traitsIcESaIcEEESt4pairIKS5_16animation_playerESt10_Select1stIS9_ESt4lessIS5_ESaIS9_EEaSEOSF_ENKUlRKS9_E_clESI_ @275
    _ZdlPvS_ @276
    _ZnwjPv @277
    _get_output_format @278
