EXPORTS
    _Z13compare_layerRK16rendering_bundleS1_ @1
    _ZN11image_pointC1Eiiiii @2
    _ZN11image_pointC2Eiiiii @3
    _ZN11image_pointD1Ev @4
    _ZN11image_pointD2Ev @5
    _ZN13button_bundle10get_x_overEv @6
    _ZN13button_bundle10get_y_overEv @7
    _ZN13button_bundle15move_rectanglesEii @8
    _ZN13button_bundle16search_rectangleE8SDL_Rect @9
    _ZN13button_bundle7is_overEiiii @10
    _ZN13button_bundleC1ERKS_ @11
    _ZN13button_bundleC1Ei @12
    _ZN13button_bundleC2Ei @13
    _ZN13button_bundleD1Ev @14
    _ZN13button_bundleD2Ev @15
    _ZN14loop_procedure12procedure_doEjbb @16
    _ZN14loop_procedureC1ERKS_ @17
    _ZN14loop_procedureD0Ev @18
    _ZN14loop_procedureD1Ev @19
    _ZN14loop_procedureaSERKS_ @20
    _ZN14procedure_baseIjE12procedure_doEv @21
    _ZN14procedure_baseIjE7comp_IDEi @22
    _ZN14procedure_baseIjEC2ERKS0_ @23
    _ZN14procedure_baseIjED0Ev @24
    _ZN14procedure_baseIjED1Ev @25
    _ZN14procedure_baseIjED2Ev @26
    _ZN14procedure_baseIjEaSERKS0_ @27
    _ZN14room_procedure12procedure_doEjbb @28
    _ZN14room_procedure13comp_input_IDEi @29
    _ZN14room_procedureC1ERKS_ @30
    _ZN14room_procedureD0Ev @31
    _ZN14room_procedureD1Ev @32
    _ZN14room_procedureaSERKS_ @33
    _ZN15panel_interface10button_getEi @34
    _ZN15panel_interface10button_newE13button_bundleSt6vectorI8SDL_RectSaIS2_EE @35
    _ZN15panel_interface10get_activeEv @36
    _ZN15panel_interface10set_activeEv @37
    _ZN15panel_interface11button_moveEiii @38
    _ZN15panel_interface11touch_eventEjii @39
    _ZN15panel_interface12get_viewportEv @40
    _ZN15panel_interface12set_inactiveEv @41
    _ZN15panel_interface13button_updateEii @42
    _ZN15panel_interface13camera_updateEii @43
    _ZN15panel_interface13get_listeningEv @44
    _ZN15panel_interface13set_listeningEb @45
    _ZN15panel_interface15camera_get_rectEv @46
    _ZN15panel_interface16button_transformEiSt6vectorI8SDL_RectSaIS1_EE @47
    _ZN15panel_interface17button_find_by_IDEi @48
    _ZN15panel_interface17button_get_activeEi @49
    _ZN15panel_interface17button_get_over_xEi @50
    _ZN15panel_interface17button_get_over_yEi @51
    _ZN15panel_interface17button_set_activeEib @52
    _ZN15panel_interface19add_panel_procedureE14room_procedure @53
    _ZN15panel_interface19camera_get_positionEv @54
    _ZN15panel_interface21read_panel_proceduresEijbb @55
    _ZN15panel_interface22remove_panel_procedureEi @56
    _ZN15panel_interface6renderEv @57
    _ZN15panel_interfaceC1ERKS_ @58
    _ZN15panel_interfaceC1EiiiiiiP8m_windowP12SDL_RendererP23image_source_controller @59
    _ZN15panel_interfaceC2EiiiiiiP8m_windowP12SDL_RendererP23image_source_controller @60
    _ZN15panel_interfaceD1Ev @61
    _ZN15panel_interfaceD2Ev @62
    _ZN16rendering_bundle11search_spotE8SDL_Rect @63
    _ZN16rendering_bundle12search_pointEii @64
    _ZN16rendering_bundle13render_bundleEP12visual_mediaiiii @65
    _ZN16rendering_bundleC1ERKS_ @66
    _ZN16rendering_bundleC1Ei8SDL_Rectd16SDL_RendererFlipii @67
    _ZN16rendering_bundleC2Ei8SDL_Rectd16SDL_RendererFlipii @68
    _ZN16rendering_bundleD1Ev @69
    _ZN16rendering_bundleD2Ev @70
    _ZN16rendering_bundleaSERKS_ @71
    _ZN18image_source_pointC1Ei @72
    _ZN18image_source_pointC2Ei @73
    _ZN23image_source_controller12set_rendererEP12SDL_Renderer @74
    _ZN23image_source_controller13load_as_blankEi17SDL_TextureAccess @75
    _ZN23image_source_controller16visual_media_getEi @76
    _ZN23image_source_controller16visual_media_newE12visual_media @77
    _ZN23image_source_controller17visual_media_wipeEi @78
    _ZN23image_source_controller20visual_media_get_redEi @79
    _ZN23image_source_controller20visual_media_set_redEih @80
    _ZN23image_source_controller21visual_media_get_blueEi @81
    _ZN23image_source_controller21visual_media_set_blueEih @82
    _ZN23image_source_controller21visual_media_wipe_allEv @83
    _ZN23image_source_controller22visual_media_get_alphaEi @84
    _ZN23image_source_controller22visual_media_get_colorEi @85
    _ZN23image_source_controller22visual_media_get_greenEi @86
    _ZN23image_source_controller22visual_media_get_pitchEi @87
    _ZN23image_source_controller22visual_media_get_pixelEijj @88
    _ZN23image_source_controller22visual_media_mod_alphaEi @89
    _ZN23image_source_controller22visual_media_mod_colorEi @90
    _ZN23image_source_controller22visual_media_set_alphaEih @91
    _ZN23image_source_controller22visual_media_set_colorEihhhh @92
    _ZN23image_source_controller22visual_media_set_greenEih @93
    _ZN23image_source_controller22visual_media_set_pixelEijjj @94
    _ZN23image_source_controller23visual_media_bin_lengthEv @95
    _ZN23image_source_controller23visual_media_find_by_IDEi @96
    _ZN23image_source_controller23visual_media_get_lockedEi @97
    _ZN23image_source_controller23visual_media_get_pixelsEi @98
    _ZN23image_source_controller23visual_media_get_x_sizeEi @99
    _ZN23image_source_controller23visual_media_get_y_sizeEi @100
    _ZN23image_source_controller23visual_media_set_lockedEib @101
    _ZN23image_source_controller23visual_media_set_pixelsEiPv @102
    _ZN23image_source_controller23visual_media_set_x_sizeEii @103
    _ZN23image_source_controller23visual_media_set_y_sizeEii @104
    _ZN23image_source_controller25visual_media_load_as_textEiP9_TTF_FontPKcbj @105
    _ZN23image_source_controller26visual_media_get_lock_rectEi @106
    _ZN23image_source_controller26visual_media_load_as_imageEiPKc @107
    _ZN23image_source_controller26visual_media_set_lock_rectEi8SDL_Rect @108
    _ZN23image_source_controller27visual_media_set_blend_modeEi13SDL_BlendMode @109
    _ZN23image_source_controller29visual_media_get_pixel_lengthEi @110
    _ZN23image_source_controller32visual_media_set_renderer_targetEi @111
    _ZN23image_source_controller33visual_media_free_renderer_targetEv @112
    _ZN23image_source_controller4sizeEv @113
    _ZN4room12event_listenER9SDL_Event @114
    _ZN4room12set_rendererEP12SDL_Renderer @115
    _ZN4room13activate_roomEv @116
    _ZN4room13add_interfaceEiiiiii @117
    _ZN4room13interface_getEi @118
    _ZN4room15deactivate_roomEv @119
    _ZN4room17add_end_procedureE14loop_procedure @120
    _ZN4room19add_mouse_procedureE14room_procedure @121
    _ZN4room19add_start_procedureE14loop_procedure @122
    _ZN4room19read_end_proceduresEbb @123
    _ZN4room20remove_end_procedureEi @124
    _ZN4room21interface_check_indexEi @125
    _ZN4room21read_mouse_proceduresEijbb @126
    _ZN4room21read_start_proceduresEbb @127
    _ZN4room22remove_mouse_procedureEi @128
    _ZN4room22remove_start_procedureEi @129
    _ZN4room23add_interface_procedureEi14room_procedure @130
    _ZN4room24add_pre_render_procedureE14loop_procedure @131
    _ZN4room25add_post_render_procedureE14loop_procedure @132
    _ZN4room25interface_misc_get_activeEi @133
    _ZN4room25interface_misc_set_activeEi @134
    _ZN4room25read_interface_proceduresEiijbb @135
    _ZN4room26read_pre_render_proceduresEibb @136
    _ZN4room26remove_interface_procedureEii @137
    _ZN4room27interface_misc_set_inactiveEi @138
    _ZN4room27read_post_render_proceduresEibb @139
    _ZN4room27remove_pre_render_procedureEi @140
    _ZN4room28interface_misc_camera_updateEiii @141
    _ZN4room28interface_misc_get_listeningEi @142
    _ZN4room28interface_misc_set_listeningEib @143
    _ZN4room28remove_post_render_procedureEi @144
    _ZN4room29visual_media_load_as_snapshotEiiiii @145
    _ZN4room6renderEiiii @146
    _ZN4roomC1EP8m_windowP12SDL_RendererP23image_source_controller @147
    _ZN4roomC2EP8m_windowP12SDL_RendererP23image_source_controller @148
    _ZN4roomD1Ev @149
    _ZN4roomD2Ev @150
    _ZN6buttonD1Ev @151
    _ZN9__gnu_cxx13new_allocatorI12visual_mediaE10deallocateEPS1_j @152
    _ZN9__gnu_cxx13new_allocatorI12visual_mediaE7destroyIS1_EEvPT_ @153
    _ZN9__gnu_cxx13new_allocatorI12visual_mediaE8allocateEjPKv @154
    _ZN9__gnu_cxx13new_allocatorI12visual_mediaE9constructIS1_JRKS1_EEEvPT_DpOT0_ @155
    _ZN9__gnu_cxx13new_allocatorI12visual_mediaEC2Ev @156
    _ZN9__gnu_cxx13new_allocatorI12visual_mediaED2Ev @157
    _ZN9__gnu_cxx13new_allocatorI13button_bundleE10deallocateEPS1_j @158
    _ZN9__gnu_cxx13new_allocatorI13button_bundleE7destroyIS1_EEvPT_ @159
    _ZN9__gnu_cxx13new_allocatorI13button_bundleE8allocateEjPKv @160
    _ZN9__gnu_cxx13new_allocatorI13button_bundleE9constructIS1_JRKS1_EEEvPT_DpOT0_ @161
    _ZN9__gnu_cxx13new_allocatorI13button_bundleEC2ERKS2_ @162
    _ZN9__gnu_cxx13new_allocatorI13button_bundleEC2Ev @163
    _ZN9__gnu_cxx13new_allocatorI13button_bundleED2Ev @164
    _ZN9__gnu_cxx13new_allocatorI13key_procedureE10deallocateEPS1_j @165
    _ZN9__gnu_cxx13new_allocatorI13key_procedureEC2ERKS2_ @166
    _ZN9__gnu_cxx13new_allocatorI13key_procedureEC2Ev @167
    _ZN9__gnu_cxx13new_allocatorI13key_procedureED2Ev @168
    _ZN9__gnu_cxx13new_allocatorI14loop_procedureE10deallocateEPS1_j @169
    _ZN9__gnu_cxx13new_allocatorI14loop_procedureE7destroyIS1_EEvPT_ @170
    _ZN9__gnu_cxx13new_allocatorI14loop_procedureE8allocateEjPKv @171
    _ZN9__gnu_cxx13new_allocatorI14loop_procedureE9constructIS1_JRKS1_EEEvPT_DpOT0_ @172
    _ZN9__gnu_cxx13new_allocatorI14loop_procedureEC2ERKS2_ @173
    _ZN9__gnu_cxx13new_allocatorI14loop_procedureEC2Ev @174
    _ZN9__gnu_cxx13new_allocatorI14loop_procedureED2Ev @175
    _ZN9__gnu_cxx13new_allocatorI14room_procedureE10deallocateEPS1_j @176
    _ZN9__gnu_cxx13new_allocatorI14room_procedureE7destroyIS1_EEvPT_ @177
    _ZN9__gnu_cxx13new_allocatorI14room_procedureE8allocateEjPKv @178
    _ZN9__gnu_cxx13new_allocatorI14room_procedureE9constructIS1_JRKS1_EEEvPT_DpOT0_ @179
    _ZN9__gnu_cxx13new_allocatorI14room_procedureEC2ERKS2_ @180
    _ZN9__gnu_cxx13new_allocatorI14room_procedureEC2Ev @181
    _ZN9__gnu_cxx13new_allocatorI14room_procedureED2Ev @182
    _ZN9__gnu_cxx13new_allocatorI15panel_interfaceE10deallocateEPS1_j @183
    _ZN9__gnu_cxx13new_allocatorI15panel_interfaceE7destroyIS1_EEvPT_ @184
    _ZN9__gnu_cxx13new_allocatorI15panel_interfaceE8allocateEjPKv @185
    _ZN9__gnu_cxx13new_allocatorI15panel_interfaceE9constructIS1_JS1_EEEvPT_DpOT0_ @186
    _ZN9__gnu_cxx13new_allocatorI15panel_interfaceEC2ERKS2_ @187
    _ZN9__gnu_cxx13new_allocatorI15panel_interfaceEC2Ev @188
    _ZN9__gnu_cxx13new_allocatorI15panel_interfaceED2Ev @189
    _ZN9__gnu_cxx13new_allocatorI16rendering_bundleE10deallocateEPS1_j @190
    _ZN9__gnu_cxx13new_allocatorI16rendering_bundleE7destroyIS1_EEvPT_ @191
    _ZN9__gnu_cxx13new_allocatorI16rendering_bundleE8allocateEjPKv @192
    _ZN9__gnu_cxx13new_allocatorI16rendering_bundleE9constructIS1_JRKS1_EEEvPT_DpOT0_ @193
    _ZN9__gnu_cxx13new_allocatorI16rendering_bundleEC2ERKS2_ @194
    _ZN9__gnu_cxx13new_allocatorI16rendering_bundleEC2Ev @195
    _ZN9__gnu_cxx13new_allocatorI16rendering_bundleED2Ev @196
    _ZN9__gnu_cxx13new_allocatorI19key_state_procedureE10deallocateEPS1_j @197
    _ZN9__gnu_cxx13new_allocatorI19key_state_procedureEC2ERKS2_ @198
    _ZN9__gnu_cxx13new_allocatorI19key_state_procedureEC2Ev @199
    _ZN9__gnu_cxx13new_allocatorI19key_state_procedureED2Ev @200
    _ZN9__gnu_cxx13new_allocatorI5pointE10deallocateEPS1_j @201
    _ZN9__gnu_cxx13new_allocatorI5pointE7destroyIS1_EEvPT_ @202
    _ZN9__gnu_cxx13new_allocatorI5pointE8allocateEjPKv @203
    _ZN9__gnu_cxx13new_allocatorI5pointE9constructIS1_JS1_EEEvPT_DpOT0_ @204
    _ZN9__gnu_cxx13new_allocatorI5pointEC2ERKS2_ @205
    _ZN9__gnu_cxx13new_allocatorI5pointEC2Ev @206
    _ZN9__gnu_cxx13new_allocatorI5pointED2Ev @207
    _ZN9__gnu_cxx13new_allocatorI8SDL_RectE10deallocateEPS1_j @208
    _ZN9__gnu_cxx13new_allocatorI8SDL_RectE8allocateEjPKv @209
    _ZN9__gnu_cxx13new_allocatorI8SDL_RectEC2ERKS2_ @210
    _ZN9__gnu_cxx13new_allocatorI8SDL_RectEC2Ev @211
    _ZN9__gnu_cxx13new_allocatorI8SDL_RectED2Ev @212
    _ZN9__gnu_cxx13new_allocatorIPiE10deallocateEPS1_j @213
    _ZN9__gnu_cxx13new_allocatorIPiE8allocateEjPKv @214
    _ZN9__gnu_cxx13new_allocatorIPiEC2Ev @215
    _ZN9__gnu_cxx13new_allocatorIPiED2Ev @216
    _ZN9__gnu_cxx13new_allocatorIiE10deallocateEPij @217
    _ZN9__gnu_cxx13new_allocatorIiE8allocateEjPKv @218
    _ZN9__gnu_cxx13new_allocatorIiE9constructIiJiEEEvPT_DpOT0_ @219
    _ZN9__gnu_cxx13new_allocatorIiEC2ERKS1_ @220
    _ZN9__gnu_cxx13new_allocatorIiEC2Ev @221
    _ZN9__gnu_cxx13new_allocatorIiED2Ev @222
    _ZN9__gnu_cxx14__alloc_traitsISaI13button_bundleEE10_S_on_swapERS2_S4_ @223
    _ZN9__gnu_cxx14__alloc_traitsISaI13button_bundleEE17_S_select_on_copyERKS2_ @224
    _ZN9__gnu_cxx14__alloc_traitsISaI13key_procedureEE10_S_on_swapERS2_S4_ @225
    _ZN9__gnu_cxx14__alloc_traitsISaI14loop_procedureEE10_S_on_swapERS2_S4_ @226
    _ZN9__gnu_cxx14__alloc_traitsISaI14room_procedureEE10_S_on_swapERS2_S4_ @227
    _ZN9__gnu_cxx14__alloc_traitsISaI14room_procedureEE17_S_select_on_copyERKS2_ @228
    _ZN9__gnu_cxx14__alloc_traitsISaI15panel_interfaceEE10_S_on_swapERS2_S4_ @229
    _ZN9__gnu_cxx14__alloc_traitsISaI16rendering_bundleEE10_S_on_swapERS2_S4_ @230
    _ZN9__gnu_cxx14__alloc_traitsISaI16rendering_bundleEE17_S_select_on_copyERKS2_ @231
    _ZN9__gnu_cxx14__alloc_traitsISaI19key_state_procedureEE10_S_on_swapERS2_S4_ @232
    _ZN9__gnu_cxx14__alloc_traitsISaI5pointEE10_S_on_swapERS2_S4_ @233
    _ZN9__gnu_cxx14__alloc_traitsISaI5pointEE15_S_always_equalEv @234
    _ZN9__gnu_cxx14__alloc_traitsISaI5pointEE17_S_select_on_copyERKS2_ @235
    _ZN9__gnu_cxx14__alloc_traitsISaI5pointEE27_S_propagate_on_copy_assignEv @236
    _ZN9__gnu_cxx14__alloc_traitsISaI8SDL_RectEE10_S_on_swapERS2_S4_ @237
    _ZN9__gnu_cxx14__alloc_traitsISaI8SDL_RectEE17_S_select_on_copyERKS2_ @238
    _ZN9__gnu_cxx17__normal_iteratorIP12visual_mediaSt6vectorIS1_SaIS1_EEEC1ERKS2_ @239
    _ZN9__gnu_cxx17__normal_iteratorIP14loop_procedureSt6vectorIS1_SaIS1_EEEC1ERKS2_ @240
    _ZN9__gnu_cxx17__normal_iteratorIP14room_procedureSt6vectorIS1_SaIS1_EEEC1ERKS2_ @241
    _ZN9__gnu_cxx17__normal_iteratorIP16rendering_bundleSt6vectorIS1_SaIS1_EEEC1ERKS2_ @242
    _ZN9__gnu_cxx17__normal_iteratorIP16rendering_bundleSt6vectorIS1_SaIS1_EEEmmEv @243
    _ZN9__gnu_cxx17__normal_iteratorIP16rendering_bundleSt6vectorIS1_SaIS1_EEEppEv @244
    _ZN9__gnu_cxx17__normal_iteratorIP5pointSt6vectorIS1_SaIS1_EEEC1ERKS2_ @245
    _ZN9__gnu_cxx17__normal_iteratorIP5pointSt6vectorIS1_SaIS1_EEEppEv @246
    _ZN9__gnu_cxx17__normal_iteratorIPK13button_bundleSt6vectorIS1_SaIS1_EEEC1ERKS3_ @247
    _ZN9__gnu_cxx17__normal_iteratorIPK13button_bundleSt6vectorIS1_SaIS1_EEEppEv @248
    _ZN9__gnu_cxx17__normal_iteratorIPK14loop_procedureSt6vectorIS1_SaIS1_EEEC1ERKS3_ @249
    _ZN9__gnu_cxx17__normal_iteratorIPK14loop_procedureSt6vectorIS1_SaIS1_EEEC1IPS1_EERKNS0_IT_NS_11__enable_ifIXsrSt10__are_sameISA_S9_E7__valueES6_E6__typeEEE @250
    _ZN9__gnu_cxx17__normal_iteratorIPK14room_procedureSt6vectorIS1_SaIS1_EEEC1ERKS3_ @251
    _ZN9__gnu_cxx17__normal_iteratorIPK14room_procedureSt6vectorIS1_SaIS1_EEEC1IPS1_EERKNS0_IT_NS_11__enable_ifIXsrSt10__are_sameISA_S9_E7__valueES6_E6__typeEEE @252
    _ZN9__gnu_cxx17__normal_iteratorIPK14room_procedureSt6vectorIS1_SaIS1_EEEppEv @253
    _ZN9__gnu_cxx17__normal_iteratorIPK16rendering_bundleSt6vectorIS1_SaIS1_EEEC1ERKS3_ @254
    _ZN9__gnu_cxx17__normal_iteratorIPK16rendering_bundleSt6vectorIS1_SaIS1_EEEC1IPS1_EERKNS0_IT_NS_11__enable_ifIXsrSt10__are_sameISA_S9_E7__valueES6_E6__typeEEE @255
    _ZN9__gnu_cxx17__normal_iteratorIPK16rendering_bundleSt6vectorIS1_SaIS1_EEEppEv @256
    _ZN9__gnu_cxx17__normal_iteratorIPK5pointSt6vectorIS1_SaIS1_EEEC1ERKS3_ @257
    _ZN9__gnu_cxx17__normal_iteratorIPK5pointSt6vectorIS1_SaIS1_EEEC1IPS1_EERKNS0_IT_NS_11__enable_ifIXsrSt10__are_sameISA_S9_E7__valueES6_E6__typeEEE @258
    _ZN9__gnu_cxx17__normal_iteratorIPK5pointSt6vectorIS1_SaIS1_EEEppEv @259
    _ZN9__gnu_cxx17__normal_iteratorIPK8SDL_RectSt6vectorIS1_SaIS1_EEEC1ERKS3_ @260
    _ZN9__gnu_cxx5__ops14_Iter_comp_valIPFbRK16rendering_bundleS4_EEC1ES6_ @261
    _ZN9__gnu_cxx5__ops14_Iter_comp_valIPFbRK16rendering_bundleS4_EEclINS_17__normal_iteratorIPS2_St6vectorIS2_SaIS2_EEEES2_EEbT_RT0_ @262
    _ZN9__gnu_cxx5__ops14_Val_comp_iterIPFbRK16rendering_bundleS4_EEC1ES6_ @263
    _ZN9__gnu_cxx5__ops14_Val_comp_iterIPFbRK16rendering_bundleS4_EEclIS2_NS_17__normal_iteratorIPS2_St6vectorIS2_SaIS2_EEEEEEbRT_T0_ @264
    _ZN9__gnu_cxx5__ops15_Iter_comp_iterIPFbRK16rendering_bundleS4_EEC1ES6_ @265
    _ZN9__gnu_cxx5__ops15_Iter_comp_iterIPFbRK16rendering_bundleS4_EEclINS_17__normal_iteratorIPS2_St6vectorIS2_SaIS2_EEEESE_EEbT_T0_ @266
    _ZN9__gnu_cxx5__ops15__iter_comp_valIPFbRK16rendering_bundleS4_EEENS0_14_Iter_comp_valIT_EENS0_15_Iter_comp_iterIS8_EE @267
    _ZN9__gnu_cxx5__ops15__val_comp_iterIPFbRK16rendering_bundleS4_EEENS0_14_Val_comp_iterIT_EENS0_15_Iter_comp_iterIS8_EE @268
    _ZN9__gnu_cxx5__ops16__iter_comp_iterIPFbRK16rendering_bundleS4_EEENS0_15_Iter_comp_iterIT_EES8_ @269
    _ZN9__gnu_cxxeqIP16rendering_bundleSt6vectorIS1_SaIS1_EEEEbRKNS_17__normal_iteratorIT_T0_EESB_ @270
    _ZN9__gnu_cxxltIP16rendering_bundleSt6vectorIS1_SaIS1_EEEEbRKNS_17__normal_iteratorIT_T0_EESB_ @271
    _ZN9__gnu_cxxmiIP16rendering_bundleSt6vectorIS1_SaIS1_EEEENS_17__normal_iteratorIT_T0_E15difference_typeERKS9_SC_ @272
    _ZN9__gnu_cxxmiIPK14loop_procedureSt6vectorIS1_SaIS1_EEEENS_17__normal_iteratorIT_T0_E15difference_typeERKSA_SD_ @273
    _ZN9__gnu_cxxmiIPK14room_procedureSt6vectorIS1_SaIS1_EEEENS_17__normal_iteratorIT_T0_E15difference_typeERKSA_SD_ @274
    _ZN9__gnu_cxxmiIPK16rendering_bundleSt6vectorIS1_SaIS1_EEEENS_17__normal_iteratorIT_T0_E15difference_typeERKSA_SD_ @275
    _ZN9__gnu_cxxmiIPK5pointSt6vectorIS1_SaIS1_EEEENS_17__normal_iteratorIT_T0_E15difference_typeERKSA_SD_ @276
    _ZN9__gnu_cxxneIP14loop_procedureSt6vectorIS1_SaIS1_EEEEbRKNS_17__normal_iteratorIT_T0_EESB_ @277
    _ZN9__gnu_cxxneIP14room_procedureSt6vectorIS1_SaIS1_EEEEbRKNS_17__normal_iteratorIT_T0_EESB_ @278
    _ZN9__gnu_cxxneIP16rendering_bundleSt6vectorIS1_SaIS1_EEEEbRKNS_17__normal_iteratorIT_T0_EESB_ @279
    _ZN9__gnu_cxxneIP5pointSt6vectorIS1_SaIS1_EEEEbRKNS_17__normal_iteratorIT_T0_EESB_ @280
    _ZN9__gnu_cxxneIPK13button_bundleSt6vectorIS1_SaIS1_EEEEbRKNS_17__normal_iteratorIT_T0_EESC_ @281
    _ZN9__gnu_cxxneIPK14room_procedureSt6vectorIS1_SaIS1_EEEEbRKNS_17__normal_iteratorIT_T0_EESC_ @282
    _ZN9__gnu_cxxneIPK16rendering_bundleSt6vectorIS1_SaIS1_EEEEbRKNS_17__normal_iteratorIT_T0_EESC_ @283
    _ZN9__gnu_cxxneIPK5pointSt6vectorIS1_SaIS1_EEEEbRKNS_17__normal_iteratorIT_T0_EESC_ @284
    _ZN9media_bin10render_binEiiii @285
    _ZN9media_bin12set_rendererEP12SDL_Renderer @286
    _ZN9media_bin17visual_media_sortEv @287
    _ZN9media_bin21visual_media_get_flipEi @288
    _ZN9media_bin21visual_media_set_flipEi16SDL_RendererFlip @289
    _ZN9media_bin21visual_media_spot_getEi @290
    _ZN9media_bin21visual_media_spot_newE16rendering_bundle @291
    _ZN9media_bin21visual_media_spot_setEi8SDL_Rect @292
    _ZN9media_bin22visual_media_point_addEiii @293
    _ZN9media_bin22visual_media_point_getEii @294
    _ZN9media_bin22visual_media_spot_findEi @295
    _ZN9media_bin23visual_media_bin_lengthEv @296
    _ZN9media_bin23visual_media_bundle_getEi @297
    _ZN9media_bin23visual_media_get_activeEi @298
    _ZN9media_bin23visual_media_point_findEiii @299
    _ZN9media_bin23visual_media_set_activeEib @300
    _ZN9media_bin23visual_media_spot_clearEv @301
    _ZN9media_bin24visual_media_point_clearEi @302
    _ZN9media_bin24visual_media_spot_removeEi @303
    _ZN9media_bin25visual_media_get_rotationEi @304
    _ZN9media_bin25visual_media_point_removeEii @305
    _ZN9media_bin25visual_media_set_rotationEid @306
    _ZN9media_bin32visual_media_get_rendering_layerEi @307
    _ZN9media_bin32visual_media_set_rendering_layerEii @308
    _ZN9media_binC1Ev @309
    _ZN9media_binC2ERKS_ @310
    _ZN9media_binC2Ev @311
    _ZN9media_binD1Ev @312
    _ZN9media_binD2Ev @313
    _ZNK9__gnu_cxx13new_allocatorI12visual_mediaE8max_sizeEv @314
    _ZNK9__gnu_cxx13new_allocatorI13button_bundleE8max_sizeEv @315
    _ZNK9__gnu_cxx13new_allocatorI14loop_procedureE8max_sizeEv @316
    _ZNK9__gnu_cxx13new_allocatorI14room_procedureE8max_sizeEv @317
    _ZNK9__gnu_cxx13new_allocatorI15panel_interfaceE8max_sizeEv @318
    _ZNK9__gnu_cxx13new_allocatorI16rendering_bundleE8max_sizeEv @319
    _ZNK9__gnu_cxx13new_allocatorI5pointE8max_sizeEv @320
    _ZNK9__gnu_cxx13new_allocatorI8SDL_RectE8max_sizeEv @321
    _ZNK9__gnu_cxx13new_allocatorIPiE8max_sizeEv @322
    _ZNK9__gnu_cxx13new_allocatorIiE8max_sizeEv @323
    _ZNK9__gnu_cxx17__normal_iteratorIP12visual_mediaSt6vectorIS1_SaIS1_EEEdeEv @324
    _ZNK9__gnu_cxx17__normal_iteratorIP12visual_mediaSt6vectorIS1_SaIS1_EEEmiEi @325
    _ZNK9__gnu_cxx17__normal_iteratorIP14loop_procedureSt6vectorIS1_SaIS1_EEE4baseEv @326
    _ZNK9__gnu_cxx17__normal_iteratorIP14loop_procedureSt6vectorIS1_SaIS1_EEEplEi @327
    _ZNK9__gnu_cxx17__normal_iteratorIP14room_procedureSt6vectorIS1_SaIS1_EEE4baseEv @328
    _ZNK9__gnu_cxx17__normal_iteratorIP14room_procedureSt6vectorIS1_SaIS1_EEEplEi @329
    _ZNK9__gnu_cxx17__normal_iteratorIP16rendering_bundleSt6vectorIS1_SaIS1_EEE4baseEv @330
    _ZNK9__gnu_cxx17__normal_iteratorIP16rendering_bundleSt6vectorIS1_SaIS1_EEEdeEv @331
    _ZNK9__gnu_cxx17__normal_iteratorIP16rendering_bundleSt6vectorIS1_SaIS1_EEEmiEi @332
    _ZNK9__gnu_cxx17__normal_iteratorIP16rendering_bundleSt6vectorIS1_SaIS1_EEEplEi @333
    _ZNK9__gnu_cxx17__normal_iteratorIP5pointSt6vectorIS1_SaIS1_EEE4baseEv @334
    _ZNK9__gnu_cxx17__normal_iteratorIP5pointSt6vectorIS1_SaIS1_EEEdeEv @335
    _ZNK9__gnu_cxx17__normal_iteratorIP5pointSt6vectorIS1_SaIS1_EEEplEi @336
    _ZNK9__gnu_cxx17__normal_iteratorIPK13button_bundleSt6vectorIS1_SaIS1_EEE4baseEv @337
    _ZNK9__gnu_cxx17__normal_iteratorIPK13button_bundleSt6vectorIS1_SaIS1_EEEdeEv @338
    _ZNK9__gnu_cxx17__normal_iteratorIPK14loop_procedureSt6vectorIS1_SaIS1_EEE4baseEv @339
    _ZNK9__gnu_cxx17__normal_iteratorIPK14room_procedureSt6vectorIS1_SaIS1_EEE4baseEv @340
    _ZNK9__gnu_cxx17__normal_iteratorIPK14room_procedureSt6vectorIS1_SaIS1_EEEdeEv @341
    _ZNK9__gnu_cxx17__normal_iteratorIPK16rendering_bundleSt6vectorIS1_SaIS1_EEE4baseEv @342
    _ZNK9__gnu_cxx17__normal_iteratorIPK16rendering_bundleSt6vectorIS1_SaIS1_EEEdeEv @343
    _ZNK9__gnu_cxx17__normal_iteratorIPK5pointSt6vectorIS1_SaIS1_EEE4baseEv @344
    _ZNK9__gnu_cxx17__normal_iteratorIPK5pointSt6vectorIS1_SaIS1_EEEdeEv @345
    _ZNK9__gnu_cxx17__normal_iteratorIPK8SDL_RectSt6vectorIS1_SaIS1_EEE4baseEv @346
    _ZNKSt11_Deque_baseIiSaIiEE19_M_get_Tp_allocatorEv @347
    _ZNKSt11_Deque_baseIiSaIiEE20_M_get_map_allocatorEv @348
    _ZNKSt12_Vector_baseI12visual_mediaSaIS0_EE19_M_get_Tp_allocatorEv @349
    _ZNKSt12_Vector_baseI13button_bundleSaIS0_EE19_M_get_Tp_allocatorEv @350
    _ZNKSt12_Vector_baseI13key_procedureSaIS0_EE13get_allocatorEv @351
    _ZNKSt12_Vector_baseI13key_procedureSaIS0_EE19_M_get_Tp_allocatorEv @352
    _ZNKSt12_Vector_baseI14loop_procedureSaIS0_EE13get_allocatorEv @353
    _ZNKSt12_Vector_baseI14loop_procedureSaIS0_EE19_M_get_Tp_allocatorEv @354
    _ZNKSt12_Vector_baseI14room_procedureSaIS0_EE13get_allocatorEv @355
    _ZNKSt12_Vector_baseI14room_procedureSaIS0_EE19_M_get_Tp_allocatorEv @356
    _ZNKSt12_Vector_baseI15panel_interfaceSaIS0_EE13get_allocatorEv @357
    _ZNKSt12_Vector_baseI15panel_interfaceSaIS0_EE19_M_get_Tp_allocatorEv @358
    _ZNKSt12_Vector_baseI16rendering_bundleSaIS0_EE19_M_get_Tp_allocatorEv @359
    _ZNKSt12_Vector_baseI19key_state_procedureSaIS0_EE13get_allocatorEv @360
    _ZNKSt12_Vector_baseI19key_state_procedureSaIS0_EE19_M_get_Tp_allocatorEv @361
    _ZNKSt12_Vector_baseI5pointSaIS0_EE13get_allocatorEv @362
    _ZNKSt12_Vector_baseI5pointSaIS0_EE19_M_get_Tp_allocatorEv @363
    _ZNKSt12_Vector_baseI8SDL_RectSaIS0_EE13get_allocatorEv @364
    _ZNKSt12_Vector_baseI8SDL_RectSaIS0_EE19_M_get_Tp_allocatorEv @365
    _ZNKSt13move_iteratorIP12visual_mediaE4baseEv @366
    _ZNKSt13move_iteratorIP12visual_mediaEdeEv @367
    _ZNKSt13move_iteratorIP14loop_procedureE4baseEv @368
    _ZNKSt13move_iteratorIP14loop_procedureEdeEv @369
    _ZNKSt13move_iteratorIP14room_procedureE4baseEv @370
    _ZNKSt13move_iteratorIP14room_procedureEdeEv @371
    _ZNKSt13move_iteratorIP5pointE4baseEv @372
    _ZNKSt13move_iteratorIP5pointEdeEv @373
    _ZNKSt6vectorI12visual_mediaSaIS0_EE12_M_check_lenEjPKc @374
    _ZNKSt6vectorI12visual_mediaSaIS0_EE14_M_range_checkEj @375
    _ZNKSt6vectorI12visual_mediaSaIS0_EE4sizeEv @376
    _ZNKSt6vectorI12visual_mediaSaIS0_EE8max_sizeEv @377
    _ZNKSt6vectorI13button_bundleSaIS0_EE12_M_check_lenEjPKc @378
    _ZNKSt6vectorI13button_bundleSaIS0_EE14_M_range_checkEj @379
    _ZNKSt6vectorI13button_bundleSaIS0_EE3endEv @380
    _ZNKSt6vectorI13button_bundleSaIS0_EE4sizeEv @381
    _ZNKSt6vectorI13button_bundleSaIS0_EE5beginEv @382
    _ZNKSt6vectorI13button_bundleSaIS0_EE8max_sizeEv @383
    _ZNKSt6vectorI14loop_procedureSaIS0_EE12_M_check_lenEjPKc @384
    _ZNKSt6vectorI14loop_procedureSaIS0_EE14_M_range_checkEj @385
    _ZNKSt6vectorI14loop_procedureSaIS0_EE4sizeEv @386
    _ZNKSt6vectorI14loop_procedureSaIS0_EE6cbeginEv @387
    _ZNKSt6vectorI14loop_procedureSaIS0_EE8max_sizeEv @388
    _ZNKSt6vectorI14room_procedureSaIS0_EE12_M_check_lenEjPKc @389
    _ZNKSt6vectorI14room_procedureSaIS0_EE14_M_range_checkEj @390
    _ZNKSt6vectorI14room_procedureSaIS0_EE3endEv @391
    _ZNKSt6vectorI14room_procedureSaIS0_EE4sizeEv @392
    _ZNKSt6vectorI14room_procedureSaIS0_EE5beginEv @393
    _ZNKSt6vectorI14room_procedureSaIS0_EE6cbeginEv @394
    _ZNKSt6vectorI14room_procedureSaIS0_EE8max_sizeEv @395
    _ZNKSt6vectorI15panel_interfaceSaIS0_EE12_M_check_lenEjPKc @396
    _ZNKSt6vectorI15panel_interfaceSaIS0_EE14_M_range_checkEj @397
    _ZNKSt6vectorI15panel_interfaceSaIS0_EE4sizeEv @398
    _ZNKSt6vectorI15panel_interfaceSaIS0_EE8max_sizeEv @399
    _ZNKSt6vectorI16rendering_bundleSaIS0_EE12_M_check_lenEjPKc @400
    _ZNKSt6vectorI16rendering_bundleSaIS0_EE14_M_range_checkEj @401
    _ZNKSt6vectorI16rendering_bundleSaIS0_EE3endEv @402
    _ZNKSt6vectorI16rendering_bundleSaIS0_EE4sizeEv @403
    _ZNKSt6vectorI16rendering_bundleSaIS0_EE5beginEv @404
    _ZNKSt6vectorI16rendering_bundleSaIS0_EE6cbeginEv @405
    _ZNKSt6vectorI16rendering_bundleSaIS0_EE8max_sizeEv @406
    _ZNKSt6vectorI5pointSaIS0_EE12_M_check_lenEjPKc @407
    _ZNKSt6vectorI5pointSaIS0_EE14_M_range_checkEj @408
    _ZNKSt6vectorI5pointSaIS0_EE3endEv @409
    _ZNKSt6vectorI5pointSaIS0_EE4sizeEv @410
    _ZNKSt6vectorI5pointSaIS0_EE5beginEv @411
    _ZNKSt6vectorI5pointSaIS0_EE6cbeginEv @412
    _ZNKSt6vectorI5pointSaIS0_EE8capacityEv @413
    _ZNKSt6vectorI5pointSaIS0_EE8max_sizeEv @414
    _ZNKSt6vectorI8SDL_RectSaIS0_EE14_M_range_checkEj @415
    _ZNKSt6vectorI8SDL_RectSaIS0_EE3endEv @416
    _ZNKSt6vectorI8SDL_RectSaIS0_EE4sizeEv @417
    _ZNKSt6vectorI8SDL_RectSaIS0_EE5beginEv @418
    _ZNSaI12visual_mediaEC2Ev @419
    _ZNSaI12visual_mediaED2Ev @420
    _ZNSaI13button_bundleEC1ERKS0_ @421
    _ZNSaI13button_bundleEC2ERKS0_ @422
    _ZNSaI13button_bundleEC2Ev @423
    _ZNSaI13button_bundleED1Ev @424
    _ZNSaI13button_bundleED2Ev @425
    _ZNSaI13key_procedureEC1ERKS0_ @426
    _ZNSaI13key_procedureEC2ERKS0_ @427
    _ZNSaI13key_procedureEC2Ev @428
    _ZNSaI13key_procedureED1Ev @429
    _ZNSaI13key_procedureED2Ev @430
    _ZNSaI14loop_procedureEC1ERKS0_ @431
    _ZNSaI14loop_procedureEC2ERKS0_ @432
    _ZNSaI14loop_procedureEC2Ev @433
    _ZNSaI14loop_procedureED1Ev @434
    _ZNSaI14loop_procedureED2Ev @435
    _ZNSaI14room_procedureEC1ERKS0_ @436
    _ZNSaI14room_procedureEC2ERKS0_ @437
    _ZNSaI14room_procedureEC2Ev @438
    _ZNSaI14room_procedureED1Ev @439
    _ZNSaI14room_procedureED2Ev @440
    _ZNSaI15panel_interfaceEC1ERKS0_ @441
    _ZNSaI15panel_interfaceEC2ERKS0_ @442
    _ZNSaI15panel_interfaceEC2Ev @443
    _ZNSaI15panel_interfaceED1Ev @444
    _ZNSaI15panel_interfaceED2Ev @445
    _ZNSaI16rendering_bundleEC1ERKS0_ @446
    _ZNSaI16rendering_bundleEC2ERKS0_ @447
    _ZNSaI16rendering_bundleEC2Ev @448
    _ZNSaI16rendering_bundleED1Ev @449
    _ZNSaI16rendering_bundleED2Ev @450
    _ZNSaI19key_state_procedureEC1ERKS0_ @451
    _ZNSaI19key_state_procedureEC2ERKS0_ @452
    _ZNSaI19key_state_procedureEC2Ev @453
    _ZNSaI19key_state_procedureED1Ev @454
    _ZNSaI19key_state_procedureED2Ev @455
    _ZNSaI5pointEC1ERKS0_ @456
    _ZNSaI5pointEC2ERKS0_ @457
    _ZNSaI5pointEC2Ev @458
    _ZNSaI5pointED1Ev @459
    _ZNSaI5pointED2Ev @460
    _ZNSaI8SDL_RectEC1ERKS0_ @461
    _ZNSaI8SDL_RectEC2ERKS0_ @462
    _ZNSaI8SDL_RectEC2Ev @463
    _ZNSaI8SDL_RectED1Ev @464
    _ZNSaI8SDL_RectED2Ev @465
    _ZNSaIPiEC1IiEERKSaIT_E @466
    _ZNSaIPiED1Ev @467
    _ZNSaIiEC2ERKS_ @468
    _ZNSaIiEC2Ev @469
    _ZNSaIiED2Ev @470
    _ZNSt10_Iter_baseIN9__gnu_cxx17__normal_iteratorIP14loop_procedureSt6vectorIS2_SaIS2_EEEELb0EE7_S_baseES7_ @471
    _ZNSt10_Iter_baseIN9__gnu_cxx17__normal_iteratorIP14loop_procedureSt6vectorIS2_SaIS2_EEEELb1EE7_S_baseES7_ @472
    _ZNSt10_Iter_baseIN9__gnu_cxx17__normal_iteratorIP14room_procedureSt6vectorIS2_SaIS2_EEEELb0EE7_S_baseES7_ @473
    _ZNSt10_Iter_baseIN9__gnu_cxx17__normal_iteratorIP14room_procedureSt6vectorIS2_SaIS2_EEEELb1EE7_S_baseES7_ @474
    _ZNSt10_Iter_baseIN9__gnu_cxx17__normal_iteratorIP16rendering_bundleSt6vectorIS2_SaIS2_EEEELb0EE7_S_baseES7_ @475
    _ZNSt10_Iter_baseIN9__gnu_cxx17__normal_iteratorIP16rendering_bundleSt6vectorIS2_SaIS2_EEEELb1EE7_S_baseES7_ @476
    _ZNSt10_Iter_baseIN9__gnu_cxx17__normal_iteratorIP5pointSt6vectorIS2_SaIS2_EEEELb0EE7_S_baseES7_ @477
    _ZNSt10_Iter_baseIN9__gnu_cxx17__normal_iteratorIP5pointSt6vectorIS2_SaIS2_EEEELb1EE7_S_baseES7_ @478
    _ZNSt10_Iter_baseIN9__gnu_cxx17__normal_iteratorIPK5pointSt6vectorIS2_SaIS2_EEEELb0EE7_S_baseES8_ @479
    _ZNSt10_Iter_baseIN9__gnu_cxx17__normal_iteratorIPK5pointSt6vectorIS2_SaIS2_EEEELb1EE7_S_baseES8_ @480
    _ZNSt10_Iter_baseIN9__gnu_cxx17__normal_iteratorIPK8SDL_RectSt6vectorIS2_SaIS2_EEEELb0EE7_S_baseES8_ @481
    _ZNSt10_Iter_baseIN9__gnu_cxx17__normal_iteratorIPK8SDL_RectSt6vectorIS2_SaIS2_EEEELb1EE7_S_baseES8_ @482
    _ZNSt10_Iter_baseIP5pointLb0EE7_S_baseES1_ @483
    _ZNSt10_Iter_baseIP8SDL_RectLb0EE7_S_baseES1_ @484
    _ZNSt10_Iter_baseIPPiLb0EE7_S_baseES1_ @485
    _ZNSt11_Deque_baseIiSaIiEE11_Deque_impl12_M_swap_dataERS2_ @486
    _ZNSt11_Deque_baseIiSaIiEE11_Deque_implC1EOS0_ @487
    _ZNSt11_Deque_baseIiSaIiEE11_Deque_implC1Ev @488
    _ZNSt11_Deque_baseIiSaIiEE11_Deque_implD1Ev @489
    _ZNSt11_Deque_baseIiSaIiEE15_M_allocate_mapEj @490
    _ZNSt11_Deque_baseIiSaIiEE15_M_create_nodesEPPiS3_ @491
    _ZNSt11_Deque_baseIiSaIiEE16_M_allocate_nodeEv @492
    _ZNSt11_Deque_baseIiSaIiEE16_M_destroy_nodesEPPiS3_ @493
    _ZNSt11_Deque_baseIiSaIiEE17_M_deallocate_mapEPPij @494
    _ZNSt11_Deque_baseIiSaIiEE17_M_initialize_mapEj @495
    _ZNSt11_Deque_baseIiSaIiEE18_M_deallocate_nodeEPi @496
    _ZNSt11_Deque_baseIiSaIiEE19_M_get_Tp_allocatorEv @497
    _ZNSt11_Deque_baseIiSaIiEEC1EOS1_St17integral_constantIbLb1EE @498
    _ZNSt11_Deque_baseIiSaIiEEC2EOS1_ @499
    _ZNSt11_Deque_baseIiSaIiEEC2Ev @500
    _ZNSt11_Deque_baseIiSaIiEED2Ev @501
    _ZNSt11__copy_moveILb0ELb0ESt26random_access_iterator_tagE8__copy_mIP5pointS4_EET0_T_S6_S5_ @502
    _ZNSt11__copy_moveILb0ELb0ESt26random_access_iterator_tagE8__copy_mIPK5pointPS3_EET0_T_S8_S7_ @503
    _ZNSt11__copy_moveILb0ELb1ESt26random_access_iterator_tagE8__copy_mI8SDL_RectEEPT_PKS4_S7_S5_ @504
    _ZNSt11__copy_moveILb0ELb1ESt26random_access_iterator_tagE8__copy_mIPiEEPT_PKS4_S7_S5_ @505
    _ZNSt11__copy_moveILb1ELb0ESt26random_access_iterator_tagE8__copy_mIP14loop_procedureS4_EET0_T_S6_S5_ @506
    _ZNSt11__copy_moveILb1ELb0ESt26random_access_iterator_tagE8__copy_mIP14room_procedureS4_EET0_T_S6_S5_ @507
    _ZNSt11__copy_moveILb1ELb0ESt26random_access_iterator_tagE8__copy_mIP16rendering_bundleS4_EET0_T_S6_S5_ @508
    _ZNSt11__copy_moveILb1ELb0ESt26random_access_iterator_tagE8__copy_mIP5pointS4_EET0_T_S6_S5_ @509
    _ZNSt12_Destroy_auxILb0EE9__destroyIN9__gnu_cxx17__normal_iteratorIP5pointSt6vectorIS4_SaIS4_EEEEEEvT_SA_ @510
    _ZNSt12_Destroy_auxILb0EE9__destroyIP12visual_mediaEEvT_S4_ @511
    _ZNSt12_Destroy_auxILb0EE9__destroyIP13button_bundleEEvT_S4_ @512
    _ZNSt12_Destroy_auxILb0EE9__destroyIP13key_procedureEEvT_S4_ @513
    _ZNSt12_Destroy_auxILb0EE9__destroyIP14loop_procedureEEvT_S4_ @514
    _ZNSt12_Destroy_auxILb0EE9__destroyIP14room_procedureEEvT_S4_ @515
    _ZNSt12_Destroy_auxILb0EE9__destroyIP15panel_interfaceEEvT_S4_ @516
    _ZNSt12_Destroy_auxILb0EE9__destroyIP16rendering_bundleEEvT_S4_ @517
    _ZNSt12_Destroy_auxILb0EE9__destroyIP19key_state_procedureEEvT_S4_ @518
    _ZNSt12_Destroy_auxILb0EE9__destroyIP5pointEEvT_S4_ @519
    _ZNSt12_Destroy_auxILb1EE9__destroyIP8SDL_RectEEvT_S4_ @520
    _ZNSt12_Vector_baseI12visual_mediaSaIS0_EE11_M_allocateEj @521
    _ZNSt12_Vector_baseI12visual_mediaSaIS0_EE12_Vector_implC1Ev @522
    _ZNSt12_Vector_baseI12visual_mediaSaIS0_EE12_Vector_implD1Ev @523
    _ZNSt12_Vector_baseI12visual_mediaSaIS0_EE13_M_deallocateEPS0_j @524
    _ZNSt12_Vector_baseI12visual_mediaSaIS0_EE19_M_get_Tp_allocatorEv @525
    _ZNSt12_Vector_baseI12visual_mediaSaIS0_EEC2Ev @526
    _ZNSt12_Vector_baseI12visual_mediaSaIS0_EED2Ev @527
    _ZNSt12_Vector_baseI13button_bundleSaIS0_EE11_M_allocateEj @528
    _ZNSt12_Vector_baseI13button_bundleSaIS0_EE12_Vector_impl12_M_swap_dataERS3_ @529
    _ZNSt12_Vector_baseI13button_bundleSaIS0_EE12_Vector_implC1ERKS1_ @530
    _ZNSt12_Vector_baseI13button_bundleSaIS0_EE12_Vector_implC1Ev @531
    _ZNSt12_Vector_baseI13button_bundleSaIS0_EE12_Vector_implD1Ev @532
    _ZNSt12_Vector_baseI13button_bundleSaIS0_EE13_M_deallocateEPS0_j @533
    _ZNSt12_Vector_baseI13button_bundleSaIS0_EE17_M_create_storageEj @534
    _ZNSt12_Vector_baseI13button_bundleSaIS0_EE19_M_get_Tp_allocatorEv @535
    _ZNSt12_Vector_baseI13button_bundleSaIS0_EEC2EjRKS1_ @536
    _ZNSt12_Vector_baseI13button_bundleSaIS0_EEC2Ev @537
    _ZNSt12_Vector_baseI13button_bundleSaIS0_EED2Ev @538
    _ZNSt12_Vector_baseI13key_procedureSaIS0_EE12_Vector_impl12_M_swap_dataERS3_ @539
    _ZNSt12_Vector_baseI13key_procedureSaIS0_EE12_Vector_implC1ERKS1_ @540
    _ZNSt12_Vector_baseI13key_procedureSaIS0_EE12_Vector_implC1Ev @541
    _ZNSt12_Vector_baseI13key_procedureSaIS0_EE12_Vector_implD1Ev @542
    _ZNSt12_Vector_baseI13key_procedureSaIS0_EE13_M_deallocateEPS0_j @543
    _ZNSt12_Vector_baseI13key_procedureSaIS0_EE19_M_get_Tp_allocatorEv @544
    _ZNSt12_Vector_baseI13key_procedureSaIS0_EEC2ERKS1_ @545
    _ZNSt12_Vector_baseI13key_procedureSaIS0_EEC2Ev @546
    _ZNSt12_Vector_baseI13key_procedureSaIS0_EED2Ev @547
    _ZNSt12_Vector_baseI14loop_procedureSaIS0_EE11_M_allocateEj @548
    _ZNSt12_Vector_baseI14loop_procedureSaIS0_EE12_Vector_impl12_M_swap_dataERS3_ @549
    _ZNSt12_Vector_baseI14loop_procedureSaIS0_EE12_Vector_implC1ERKS1_ @550
    _ZNSt12_Vector_baseI14loop_procedureSaIS0_EE12_Vector_implC1Ev @551
    _ZNSt12_Vector_baseI14loop_procedureSaIS0_EE12_Vector_implD1Ev @552
    _ZNSt12_Vector_baseI14loop_procedureSaIS0_EE13_M_deallocateEPS0_j @553
    _ZNSt12_Vector_baseI14loop_procedureSaIS0_EE19_M_get_Tp_allocatorEv @554
    _ZNSt12_Vector_baseI14loop_procedureSaIS0_EEC2ERKS1_ @555
    _ZNSt12_Vector_baseI14loop_procedureSaIS0_EEC2Ev @556
    _ZNSt12_Vector_baseI14loop_procedureSaIS0_EED2Ev @557
    _ZNSt12_Vector_baseI14room_procedureSaIS0_EE11_M_allocateEj @558
    _ZNSt12_Vector_baseI14room_procedureSaIS0_EE12_Vector_impl12_M_swap_dataERS3_ @559
    _ZNSt12_Vector_baseI14room_procedureSaIS0_EE12_Vector_implC1ERKS1_ @560
    _ZNSt12_Vector_baseI14room_procedureSaIS0_EE12_Vector_implC1Ev @561
    _ZNSt12_Vector_baseI14room_procedureSaIS0_EE12_Vector_implD1Ev @562
    _ZNSt12_Vector_baseI14room_procedureSaIS0_EE13_M_deallocateEPS0_j @563
    _ZNSt12_Vector_baseI14room_procedureSaIS0_EE17_M_create_storageEj @564
    _ZNSt12_Vector_baseI14room_procedureSaIS0_EE19_M_get_Tp_allocatorEv @565
    _ZNSt12_Vector_baseI14room_procedureSaIS0_EEC2ERKS1_ @566
    _ZNSt12_Vector_baseI14room_procedureSaIS0_EEC2EjRKS1_ @567
    _ZNSt12_Vector_baseI14room_procedureSaIS0_EEC2Ev @568
    _ZNSt12_Vector_baseI14room_procedureSaIS0_EED2Ev @569
    _ZNSt12_Vector_baseI15panel_interfaceSaIS0_EE11_M_allocateEj @570
    _ZNSt12_Vector_baseI15panel_interfaceSaIS0_EE12_Vector_impl12_M_swap_dataERS3_ @571
    _ZNSt12_Vector_baseI15panel_interfaceSaIS0_EE12_Vector_implC1ERKS1_ @572
    _ZNSt12_Vector_baseI15panel_interfaceSaIS0_EE12_Vector_implC1Ev @573
    _ZNSt12_Vector_baseI15panel_interfaceSaIS0_EE12_Vector_implD1Ev @574
    _ZNSt12_Vector_baseI15panel_interfaceSaIS0_EE13_M_deallocateEPS0_j @575
    _ZNSt12_Vector_baseI15panel_interfaceSaIS0_EE19_M_get_Tp_allocatorEv @576
    _ZNSt12_Vector_baseI15panel_interfaceSaIS0_EEC2ERKS1_ @577
    _ZNSt12_Vector_baseI15panel_interfaceSaIS0_EEC2Ev @578
    _ZNSt12_Vector_baseI15panel_interfaceSaIS0_EED2Ev @579
    _ZNSt12_Vector_baseI16rendering_bundleSaIS0_EE11_M_allocateEj @580
    _ZNSt12_Vector_baseI16rendering_bundleSaIS0_EE12_Vector_impl12_M_swap_dataERS3_ @581
    _ZNSt12_Vector_baseI16rendering_bundleSaIS0_EE12_Vector_implC1ERKS1_ @582
    _ZNSt12_Vector_baseI16rendering_bundleSaIS0_EE12_Vector_implC1Ev @583
    _ZNSt12_Vector_baseI16rendering_bundleSaIS0_EE12_Vector_implD1Ev @584
    _ZNSt12_Vector_baseI16rendering_bundleSaIS0_EE13_M_deallocateEPS0_j @585
    _ZNSt12_Vector_baseI16rendering_bundleSaIS0_EE17_M_create_storageEj @586
    _ZNSt12_Vector_baseI16rendering_bundleSaIS0_EE19_M_get_Tp_allocatorEv @587
    _ZNSt12_Vector_baseI16rendering_bundleSaIS0_EEC2EjRKS1_ @588
    _ZNSt12_Vector_baseI16rendering_bundleSaIS0_EEC2Ev @589
    _ZNSt12_Vector_baseI16rendering_bundleSaIS0_EED2Ev @590
    _ZNSt12_Vector_baseI19key_state_procedureSaIS0_EE12_Vector_impl12_M_swap_dataERS3_ @591
    _ZNSt12_Vector_baseI19key_state_procedureSaIS0_EE12_Vector_implC1ERKS1_ @592
    _ZNSt12_Vector_baseI19key_state_procedureSaIS0_EE12_Vector_implC1Ev @593
    _ZNSt12_Vector_baseI19key_state_procedureSaIS0_EE12_Vector_implD1Ev @594
    _ZNSt12_Vector_baseI19key_state_procedureSaIS0_EE13_M_deallocateEPS0_j @595
    _ZNSt12_Vector_baseI19key_state_procedureSaIS0_EE19_M_get_Tp_allocatorEv @596
    _ZNSt12_Vector_baseI19key_state_procedureSaIS0_EEC2ERKS1_ @597
    _ZNSt12_Vector_baseI19key_state_procedureSaIS0_EEC2Ev @598
    _ZNSt12_Vector_baseI19key_state_procedureSaIS0_EED2Ev @599
    _ZNSt12_Vector_baseI5pointSaIS0_EE11_M_allocateEj @600
    _ZNSt12_Vector_baseI5pointSaIS0_EE12_Vector_impl12_M_swap_dataERS3_ @601
    _ZNSt12_Vector_baseI5pointSaIS0_EE12_Vector_implC1ERKS1_ @602
    _ZNSt12_Vector_baseI5pointSaIS0_EE12_Vector_implC1Ev @603
    _ZNSt12_Vector_baseI5pointSaIS0_EE12_Vector_implD1Ev @604
    _ZNSt12_Vector_baseI5pointSaIS0_EE13_M_deallocateEPS0_j @605
    _ZNSt12_Vector_baseI5pointSaIS0_EE17_M_create_storageEj @606
    _ZNSt12_Vector_baseI5pointSaIS0_EE19_M_get_Tp_allocatorEv @607
    _ZNSt12_Vector_baseI5pointSaIS0_EEC2ERKS1_ @608
    _ZNSt12_Vector_baseI5pointSaIS0_EEC2EjRKS1_ @609
    _ZNSt12_Vector_baseI5pointSaIS0_EEC2Ev @610
    _ZNSt12_Vector_baseI5pointSaIS0_EED2Ev @611
    _ZNSt12_Vector_baseI8SDL_RectSaIS0_EE11_M_allocateEj @612
    _ZNSt12_Vector_baseI8SDL_RectSaIS0_EE12_Vector_impl12_M_swap_dataERS3_ @613
    _ZNSt12_Vector_baseI8SDL_RectSaIS0_EE12_Vector_implC1ERKS1_ @614
    _ZNSt12_Vector_baseI8SDL_RectSaIS0_EE12_Vector_implC1Ev @615
    _ZNSt12_Vector_baseI8SDL_RectSaIS0_EE12_Vector_implD1Ev @616
    _ZNSt12_Vector_baseI8SDL_RectSaIS0_EE13_M_deallocateEPS0_j @617
    _ZNSt12_Vector_baseI8SDL_RectSaIS0_EE17_M_create_storageEj @618
    _ZNSt12_Vector_baseI8SDL_RectSaIS0_EE19_M_get_Tp_allocatorEv @619
    _ZNSt12_Vector_baseI8SDL_RectSaIS0_EEC2ERKS1_ @620
    _ZNSt12_Vector_baseI8SDL_RectSaIS0_EEC2EjRKS1_ @621
    _ZNSt12_Vector_baseI8SDL_RectSaIS0_EEC2Ev @622
    _ZNSt12_Vector_baseI8SDL_RectSaIS0_EED2Ev @623
    _ZNSt12out_of_rangeC1ERKS_ @624
    _ZNSt13move_iteratorIP12visual_mediaEC1ES1_ @625
    _ZNSt13move_iteratorIP12visual_mediaEppEv @626
    _ZNSt13move_iteratorIP14loop_procedureEC1ES1_ @627
    _ZNSt13move_iteratorIP14loop_procedureEppEv @628
    _ZNSt13move_iteratorIP14room_procedureEC1ES1_ @629
    _ZNSt13move_iteratorIP14room_procedureEppEv @630
    _ZNSt13move_iteratorIP5pointEC1ES1_ @631
    _ZNSt13move_iteratorIP5pointEppEv @632
    _ZNSt15_Deque_iteratorIiRiPiE11_M_set_nodeEPS1_ @633
    _ZNSt15_Deque_iteratorIiRiPiE14_S_buffer_sizeEv @634
    _ZNSt15_Deque_iteratorIiRiPiEC1ERKS2_ @635
    _ZNSt15_Deque_iteratorIiRiPiEC1Ev @636
    _ZNSt16allocator_traitsISaI12visual_mediaEE10_S_destroyIS0_EENSt9enable_ifIXsrSt6__and_IJNS2_16__destroy_helperIT_E4typeEEE5valueEvE4typeERS1_PS7_ @637
    _ZNSt16allocator_traitsISaI12visual_mediaEE10deallocateERS1_PS0_j @638
    _ZNSt16allocator_traitsISaI12visual_mediaEE11_S_max_sizeIKS1_vEEjRT_i @639
    _ZNSt16allocator_traitsISaI12visual_mediaEE12_S_constructIS0_JRKS0_EEENSt9enable_ifIXsrSt6__and_IJNS2_18__construct_helperIT_JDpT0_EE4typeEEE5valueEvE4typeERS1_PS9_DpOSA_ @640
    _ZNSt16allocator_traitsISaI12visual_mediaEE7destroyIS0_EEvRS1_PT_ @641
    _ZNSt16allocator_traitsISaI12visual_mediaEE8allocateERS1_j @642
    _ZNSt16allocator_traitsISaI12visual_mediaEE8max_sizeERKS1_ @643
    _ZNSt16allocator_traitsISaI12visual_mediaEE9constructIS0_JRKS0_EEEDTcl12_S_constructfp_fp0_spcl7forwardIT0_Efp1_EEERS1_PT_DpOS6_ @644
    _ZNSt16allocator_traitsISaI13button_bundleEE10_S_destroyIS0_EENSt9enable_ifIXsrSt6__and_IJNS2_16__destroy_helperIT_E4typeEEE5valueEvE4typeERS1_PS7_ @645
    _ZNSt16allocator_traitsISaI13button_bundleEE10deallocateERS1_PS0_j @646
    _ZNSt16allocator_traitsISaI13button_bundleEE11_S_max_sizeIKS1_vEEjRT_i @647
    _ZNSt16allocator_traitsISaI13button_bundleEE12_S_constructIS0_JRKS0_EEENSt9enable_ifIXsrSt6__and_IJNS2_18__construct_helperIT_JDpT0_EE4typeEEE5valueEvE4typeERS1_PS9_DpOSA_ @648
    _ZNSt16allocator_traitsISaI13button_bundleEE37select_on_container_copy_constructionERKS1_ @649
    _ZNSt16allocator_traitsISaI13button_bundleEE7destroyIS0_EEvRS1_PT_ @650
    _ZNSt16allocator_traitsISaI13button_bundleEE8allocateERS1_j @651
    _ZNSt16allocator_traitsISaI13button_bundleEE8max_sizeERKS1_ @652
    _ZNSt16allocator_traitsISaI13button_bundleEE9_S_selectIKS1_vEET_RS5_z @653
    _ZNSt16allocator_traitsISaI13button_bundleEE9constructIS0_JRKS0_EEEDTcl12_S_constructfp_fp0_spcl7forwardIT0_Efp1_EEERS1_PT_DpOS6_ @654
    _ZNSt16allocator_traitsISaI13key_procedureEE10deallocateERS1_PS0_j @655
    _ZNSt16allocator_traitsISaI14loop_procedureEE10_S_destroyIS0_EENSt9enable_ifIXsrSt6__and_IJNS2_16__destroy_helperIT_E4typeEEE5valueEvE4typeERS1_PS7_ @656
    _ZNSt16allocator_traitsISaI14loop_procedureEE10deallocateERS1_PS0_j @657
    _ZNSt16allocator_traitsISaI14loop_procedureEE11_S_max_sizeIKS1_vEEjRT_i @658
    _ZNSt16allocator_traitsISaI14loop_procedureEE12_S_constructIS0_JRKS0_EEENSt9enable_ifIXsrSt6__and_IJNS2_18__construct_helperIT_JDpT0_EE4typeEEE5valueEvE4typeERS1_PS9_DpOSA_ @659
    _ZNSt16allocator_traitsISaI14loop_procedureEE7destroyIS0_EEvRS1_PT_ @660
    _ZNSt16allocator_traitsISaI14loop_procedureEE8allocateERS1_j @661
    _ZNSt16allocator_traitsISaI14loop_procedureEE8max_sizeERKS1_ @662
    _ZNSt16allocator_traitsISaI14loop_procedureEE9constructIS0_JRKS0_EEEDTcl12_S_constructfp_fp0_spcl7forwardIT0_Efp1_EEERS1_PT_DpOS6_ @663
    _ZNSt16allocator_traitsISaI14room_procedureEE10_S_destroyIS0_EENSt9enable_ifIXsrSt6__and_IJNS2_16__destroy_helperIT_E4typeEEE5valueEvE4typeERS1_PS7_ @664
    _ZNSt16allocator_traitsISaI14room_procedureEE10deallocateERS1_PS0_j @665
    _ZNSt16allocator_traitsISaI14room_procedureEE11_S_max_sizeIKS1_vEEjRT_i @666
    _ZNSt16allocator_traitsISaI14room_procedureEE12_S_constructIS0_JRKS0_EEENSt9enable_ifIXsrSt6__and_IJNS2_18__construct_helperIT_JDpT0_EE4typeEEE5valueEvE4typeERS1_PS9_DpOSA_ @667
    _ZNSt16allocator_traitsISaI14room_procedureEE37select_on_container_copy_constructionERKS1_ @668
    _ZNSt16allocator_traitsISaI14room_procedureEE7destroyIS0_EEvRS1_PT_ @669
    _ZNSt16allocator_traitsISaI14room_procedureEE8allocateERS1_j @670
    _ZNSt16allocator_traitsISaI14room_procedureEE8max_sizeERKS1_ @671
    _ZNSt16allocator_traitsISaI14room_procedureEE9_S_selectIKS1_vEET_RS5_z @672
    _ZNSt16allocator_traitsISaI14room_procedureEE9constructIS0_JRKS0_EEEDTcl12_S_constructfp_fp0_spcl7forwardIT0_Efp1_EEERS1_PT_DpOS6_ @673
    _ZNSt16allocator_traitsISaI15panel_interfaceEE10_S_destroyIS0_EENSt9enable_ifIXsrSt6__and_IJNS2_16__destroy_helperIT_E4typeEEE5valueEvE4typeERS1_PS7_ @674
    _ZNSt16allocator_traitsISaI15panel_interfaceEE10deallocateERS1_PS0_j @675
    _ZNSt16allocator_traitsISaI15panel_interfaceEE11_S_max_sizeIKS1_vEEjRT_i @676
    _ZNSt16allocator_traitsISaI15panel_interfaceEE12_S_constructIS0_JS0_EEENSt9enable_ifIXsrSt6__and_IJNS2_18__construct_helperIT_JDpT0_EE4typeEEE5valueEvE4typeERS1_PS7_DpOS8_ @677
    _ZNSt16allocator_traitsISaI15panel_interfaceEE7destroyIS0_EEvRS1_PT_ @678
    _ZNSt16allocator_traitsISaI15panel_interfaceEE8allocateERS1_j @679
    _ZNSt16allocator_traitsISaI15panel_interfaceEE8max_sizeERKS1_ @680
    _ZNSt16allocator_traitsISaI15panel_interfaceEE9constructIS0_JS0_EEEDTcl12_S_constructfp_fp0_spcl7forwardIT0_Efp1_EEERS1_PT_DpOS4_ @681
    _ZNSt16allocator_traitsISaI16rendering_bundleEE10_S_destroyIS0_EENSt9enable_ifIXsrSt6__and_IJNS2_16__destroy_helperIT_E4typeEEE5valueEvE4typeERS1_PS7_ @682
    _ZNSt16allocator_traitsISaI16rendering_bundleEE10deallocateERS1_PS0_j @683
    _ZNSt16allocator_traitsISaI16rendering_bundleEE11_S_max_sizeIKS1_vEEjRT_i @684
    _ZNSt16allocator_traitsISaI16rendering_bundleEE12_S_constructIS0_JRKS0_EEENSt9enable_ifIXsrSt6__and_IJNS2_18__construct_helperIT_JDpT0_EE4typeEEE5valueEvE4typeERS1_PS9_DpOSA_ @685
    _ZNSt16allocator_traitsISaI16rendering_bundleEE37select_on_container_copy_constructionERKS1_ @686
    _ZNSt16allocator_traitsISaI16rendering_bundleEE7destroyIS0_EEvRS1_PT_ @687
    _ZNSt16allocator_traitsISaI16rendering_bundleEE8allocateERS1_j @688
    _ZNSt16allocator_traitsISaI16rendering_bundleEE8max_sizeERKS1_ @689
    _ZNSt16allocator_traitsISaI16rendering_bundleEE9_S_selectIKS1_vEET_RS5_z @690
    _ZNSt16allocator_traitsISaI16rendering_bundleEE9constructIS0_JRKS0_EEEDTcl12_S_constructfp_fp0_spcl7forwardIT0_Efp1_EEERS1_PT_DpOS6_ @691
    _ZNSt16allocator_traitsISaI19key_state_procedureEE10deallocateERS1_PS0_j @692
    _ZNSt16allocator_traitsISaI5pointEE10_S_destroyIS0_EENSt9enable_ifIXsrSt6__and_IJNS2_16__destroy_helperIT_E4typeEEE5valueEvE4typeERS1_PS7_ @693
    _ZNSt16allocator_traitsISaI5pointEE10deallocateERS1_PS0_j @694
    _ZNSt16allocator_traitsISaI5pointEE11_S_max_sizeIKS1_vEEjRT_i @695
    _ZNSt16allocator_traitsISaI5pointEE12_S_constructIS0_JS0_EEENSt9enable_ifIXsrSt6__and_IJNS2_18__construct_helperIT_JDpT0_EE4typeEEE5valueEvE4typeERS1_PS7_DpOS8_ @696
    _ZNSt16allocator_traitsISaI5pointEE37select_on_container_copy_constructionERKS1_ @697
    _ZNSt16allocator_traitsISaI5pointEE7destroyIS0_EEvRS1_PT_ @698
    _ZNSt16allocator_traitsISaI5pointEE8allocateERS1_j @699
    _ZNSt16allocator_traitsISaI5pointEE8max_sizeERKS1_ @700
    _ZNSt16allocator_traitsISaI5pointEE9_S_selectIKS1_vEET_RS5_z @701
    _ZNSt16allocator_traitsISaI5pointEE9constructIS0_JS0_EEEDTcl12_S_constructfp_fp0_spcl7forwardIT0_Efp1_EEERS1_PT_DpOS4_ @702
    _ZNSt16allocator_traitsISaI8SDL_RectEE10deallocateERS1_PS0_j @703
    _ZNSt16allocator_traitsISaI8SDL_RectEE37select_on_container_copy_constructionERKS1_ @704
    _ZNSt16allocator_traitsISaI8SDL_RectEE8allocateERS1_j @705
    _ZNSt16allocator_traitsISaI8SDL_RectEE9_S_selectIKS1_vEET_RS5_z @706
    _ZNSt16allocator_traitsISaIPiEE10deallocateERS1_PS0_j @707
    _ZNSt16allocator_traitsISaIPiEE8allocateERS1_j @708
    _ZNSt16allocator_traitsISaIiEE10deallocateERS0_Pij @709
    _ZNSt16allocator_traitsISaIiEE12_S_constructIiJiEEENSt9enable_ifIXsrSt6__and_IJNS1_18__construct_helperIT_JDpT0_EE4typeEEE5valueEvE4typeERS0_PS6_DpOS7_ @710
    _ZNSt16allocator_traitsISaIiEE8allocateERS0_j @711
    _ZNSt16allocator_traitsISaIiEE9constructIiJiEEEDTcl12_S_constructfp_fp0_spcl7forwardIT0_Efp1_EEERS0_PT_DpOS3_ @712
    _ZNSt20__copy_move_backwardILb0ELb1ESt26random_access_iterator_tagE13__copy_move_bIPiEEPT_PKS4_S7_S5_ @713
    _ZNSt20__copy_move_backwardILb1ELb0ESt26random_access_iterator_tagE13__copy_move_bIP16rendering_bundleS4_EET0_T_S6_S5_ @714
    _ZNSt20__uninitialized_copyILb0EE13__uninit_copyIN9__gnu_cxx17__normal_iteratorIPK13button_bundleSt6vectorIS4_SaIS4_EEEEPS4_EET0_T_SD_SC_ @715
    _ZNSt20__uninitialized_copyILb0EE13__uninit_copyIN9__gnu_cxx17__normal_iteratorIPK14room_procedureSt6vectorIS4_SaIS4_EEEEPS4_EET0_T_SD_SC_ @716
    _ZNSt20__uninitialized_copyILb0EE13__uninit_copyIN9__gnu_cxx17__normal_iteratorIPK16rendering_bundleSt6vectorIS4_SaIS4_EEEEPS4_EET0_T_SD_SC_ @717
    _ZNSt20__uninitialized_copyILb0EE13__uninit_copyIN9__gnu_cxx17__normal_iteratorIPK5pointSt6vectorIS4_SaIS4_EEEEPS4_EET0_T_SD_SC_ @718
    _ZNSt20__uninitialized_copyILb0EE13__uninit_copyIP13button_bundleS3_EET0_T_S5_S4_ @719
    _ZNSt20__uninitialized_copyILb0EE13__uninit_copyIP15panel_interfaceS3_EET0_T_S5_S4_ @720
    _ZNSt20__uninitialized_copyILb0EE13__uninit_copyIP16rendering_bundleS3_EET0_T_S5_S4_ @721
    _ZNSt20__uninitialized_copyILb0EE13__uninit_copyIP5pointS3_EET0_T_S5_S4_ @722
    _ZNSt20__uninitialized_copyILb0EE13__uninit_copyISt13move_iteratorIP12visual_mediaES4_EET0_T_S7_S6_ @723
    _ZNSt20__uninitialized_copyILb0EE13__uninit_copyISt13move_iteratorIP14loop_procedureES4_EET0_T_S7_S6_ @724
    _ZNSt20__uninitialized_copyILb0EE13__uninit_copyISt13move_iteratorIP14room_procedureES4_EET0_T_S7_S6_ @725
    _ZNSt20__uninitialized_copyILb0EE13__uninit_copyISt13move_iteratorIP5pointES4_EET0_T_S7_S6_ @726
    _ZNSt20__uninitialized_copyILb1EE13__uninit_copyIN9__gnu_cxx17__normal_iteratorIPK8SDL_RectSt6vectorIS4_SaIS4_EEEEPS4_EET0_T_SD_SC_ @727
    _ZNSt5dequeIiSaIiEE12emplace_backIJiEEEvDpOT_ @728
    _ZNSt5dequeIiSaIiEE15_M_destroy_dataESt15_Deque_iteratorIiRiPiES5_RKS0_ @729
    _ZNSt5dequeIiSaIiEE16_M_push_back_auxIJiEEEvDpOT_ @730
    _ZNSt5dequeIiSaIiEE17_M_reallocate_mapEjb @731
    _ZNSt5dequeIiSaIiEE22_M_reserve_map_at_backEj @732
    _ZNSt5dequeIiSaIiEE3endEv @733
    _ZNSt5dequeIiSaIiEE5beginEv @734
    _ZNSt5dequeIiSaIiEE9push_backEOi @735
    _ZNSt5dequeIiSaIiEEC1EOS1_ @736
    _ZNSt5dequeIiSaIiEEC1Ev @737
    _ZNSt5dequeIiSaIiEED1Ev @738
    _ZNSt5queueIiSt5dequeIiSaIiEEE4pushEOi @739
    _ZNSt5queueIiSt5dequeIiSaIiEEEC1EOS2_ @740
    _ZNSt5queueIiSt5dequeIiSaIiEEED1Ev @741
    _ZNSt6vectorI12visual_mediaSaIS0_EE19_M_emplace_back_auxIJRKS0_EEEvDpOT_ @742
    _ZNSt6vectorI12visual_mediaSaIS0_EE2atEj @743
    _ZNSt6vectorI12visual_mediaSaIS0_EE3endEv @744
    _ZNSt6vectorI12visual_mediaSaIS0_EE4backEv @745
    _ZNSt6vectorI12visual_mediaSaIS0_EE9push_backERKS0_ @746
    _ZNSt6vectorI12visual_mediaSaIS0_EEC1Ev @747
    _ZNSt6vectorI12visual_mediaSaIS0_EED1Ev @748
    _ZNSt6vectorI12visual_mediaSaIS0_EEixEj @749
    _ZNSt6vectorI13button_bundleSaIS0_EE19_M_emplace_back_auxIJRKS0_EEEvDpOT_ @750
    _ZNSt6vectorI13button_bundleSaIS0_EE2atEj @751
    _ZNSt6vectorI13button_bundleSaIS0_EE4swapERS2_ @752
    _ZNSt6vectorI13button_bundleSaIS0_EE9push_backERKS0_ @753
    _ZNSt6vectorI13button_bundleSaIS0_EEC1ERKS2_ @754
    _ZNSt6vectorI13button_bundleSaIS0_EEC1Ev @755
    _ZNSt6vectorI13button_bundleSaIS0_EED1Ev @756
    _ZNSt6vectorI13button_bundleSaIS0_EEixEj @757
    _ZNSt6vectorI13key_procedureSaIS0_EE14_M_move_assignEOS2_St17integral_constantIbLb1EE @758
    _ZNSt6vectorI13key_procedureSaIS0_EE4swapERS2_ @759
    _ZNSt6vectorI13key_procedureSaIS0_EEC1ERKS1_ @760
    _ZNSt6vectorI13key_procedureSaIS0_EEC1Ev @761
    _ZNSt6vectorI13key_procedureSaIS0_EED1Ev @762
    _ZNSt6vectorI13key_procedureSaIS0_EEaSEOS2_ @763
    _ZNSt6vectorI14loop_procedureSaIS0_EE14_M_move_assignEOS2_St17integral_constantIbLb1EE @764
    _ZNSt6vectorI14loop_procedureSaIS0_EE19_M_emplace_back_auxIJRKS0_EEEvDpOT_ @765
    _ZNSt6vectorI14loop_procedureSaIS0_EE2atEj @766
    _ZNSt6vectorI14loop_procedureSaIS0_EE3endEv @767
    _ZNSt6vectorI14loop_procedureSaIS0_EE4swapERS2_ @768
    _ZNSt6vectorI14loop_procedureSaIS0_EE5beginEv @769
    _ZNSt6vectorI14loop_procedureSaIS0_EE5eraseEN9__gnu_cxx17__normal_iteratorIPKS0_S2_EE @770
    _ZNSt6vectorI14loop_procedureSaIS0_EE8_M_eraseEN9__gnu_cxx17__normal_iteratorIPS0_S2_EE @771
    _ZNSt6vectorI14loop_procedureSaIS0_EE9push_backERKS0_ @772
    _ZNSt6vectorI14loop_procedureSaIS0_EEC1ERKS1_ @773
    _ZNSt6vectorI14loop_procedureSaIS0_EEC1Ev @774
    _ZNSt6vectorI14loop_procedureSaIS0_EED1Ev @775
    _ZNSt6vectorI14loop_procedureSaIS0_EEaSEOS2_ @776
    _ZNSt6vectorI14loop_procedureSaIS0_EEixEj @777
    _ZNSt6vectorI14room_procedureSaIS0_EE14_M_move_assignEOS2_St17integral_constantIbLb1EE @778
    _ZNSt6vectorI14room_procedureSaIS0_EE19_M_emplace_back_auxIJRKS0_EEEvDpOT_ @779
    _ZNSt6vectorI14room_procedureSaIS0_EE2atEj @780
    _ZNSt6vectorI14room_procedureSaIS0_EE3endEv @781
    _ZNSt6vectorI14room_procedureSaIS0_EE4swapERS2_ @782
    _ZNSt6vectorI14room_procedureSaIS0_EE5beginEv @783
    _ZNSt6vectorI14room_procedureSaIS0_EE5eraseEN9__gnu_cxx17__normal_iteratorIPKS0_S2_EE @784
    _ZNSt6vectorI14room_procedureSaIS0_EE8_M_eraseEN9__gnu_cxx17__normal_iteratorIPS0_S2_EE @785
    _ZNSt6vectorI14room_procedureSaIS0_EE9push_backERKS0_ @786
    _ZNSt6vectorI14room_procedureSaIS0_EEC1ERKS1_ @787
    _ZNSt6vectorI14room_procedureSaIS0_EEC1ERKS2_ @788
    _ZNSt6vectorI14room_procedureSaIS0_EEC1Ev @789
    _ZNSt6vectorI14room_procedureSaIS0_EED1Ev @790
    _ZNSt6vectorI14room_procedureSaIS0_EEaSEOS2_ @791
    _ZNSt6vectorI14room_procedureSaIS0_EEixEj @792
    _ZNSt6vectorI15panel_interfaceSaIS0_EE12emplace_backIJS0_EEEvDpOT_ @793
    _ZNSt6vectorI15panel_interfaceSaIS0_EE14_M_move_assignEOS2_St17integral_constantIbLb1EE @794
    _ZNSt6vectorI15panel_interfaceSaIS0_EE19_M_emplace_back_auxIJS0_EEEvDpOT_ @795
    _ZNSt6vectorI15panel_interfaceSaIS0_EE2atEj @796
    _ZNSt6vectorI15panel_interfaceSaIS0_EE4swapERS2_ @797
    _ZNSt6vectorI15panel_interfaceSaIS0_EE9push_backEOS0_ @798
    _ZNSt6vectorI15panel_interfaceSaIS0_EEC1ERKS1_ @799
    _ZNSt6vectorI15panel_interfaceSaIS0_EEC1Ev @800
    _ZNSt6vectorI15panel_interfaceSaIS0_EED1Ev @801
    _ZNSt6vectorI15panel_interfaceSaIS0_EEaSEOS2_ @802
    _ZNSt6vectorI15panel_interfaceSaIS0_EEixEj @803
    _ZNSt6vectorI16rendering_bundleSaIS0_EE15_M_erase_at_endEPS0_ @804
    _ZNSt6vectorI16rendering_bundleSaIS0_EE19_M_emplace_back_auxIJRKS0_EEEvDpOT_ @805
    _ZNSt6vectorI16rendering_bundleSaIS0_EE2atEj @806
    _ZNSt6vectorI16rendering_bundleSaIS0_EE3endEv @807
    _ZNSt6vectorI16rendering_bundleSaIS0_EE4swapERS2_ @808
    _ZNSt6vectorI16rendering_bundleSaIS0_EE5beginEv @809
    _ZNSt6vectorI16rendering_bundleSaIS0_EE5clearEv @810
    _ZNSt6vectorI16rendering_bundleSaIS0_EE5eraseEN9__gnu_cxx17__normal_iteratorIPKS0_S2_EE @811
    _ZNSt6vectorI16rendering_bundleSaIS0_EE8_M_eraseEN9__gnu_cxx17__normal_iteratorIPS0_S2_EE @812
    _ZNSt6vectorI16rendering_bundleSaIS0_EE9push_backERKS0_ @813
    _ZNSt6vectorI16rendering_bundleSaIS0_EEC1ERKS2_ @814
    _ZNSt6vectorI16rendering_bundleSaIS0_EEC1Ev @815
    _ZNSt6vectorI16rendering_bundleSaIS0_EED1Ev @816
    _ZNSt6vectorI16rendering_bundleSaIS0_EEixEj @817
    _ZNSt6vectorI19key_state_procedureSaIS0_EE14_M_move_assignEOS2_St17integral_constantIbLb1EE @818
    _ZNSt6vectorI19key_state_procedureSaIS0_EE4swapERS2_ @819
    _ZNSt6vectorI19key_state_procedureSaIS0_EEC1ERKS1_ @820
    _ZNSt6vectorI19key_state_procedureSaIS0_EEC1Ev @821
    _ZNSt6vectorI19key_state_procedureSaIS0_EED1Ev @822
    _ZNSt6vectorI19key_state_procedureSaIS0_EEaSEOS2_ @823
    _ZNSt6vectorI5pointSaIS0_EE12emplace_backIJS0_EEEvDpOT_ @824
    _ZNSt6vectorI5pointSaIS0_EE14_M_move_assignEOS2_St17integral_constantIbLb1EE @825
    _ZNSt6vectorI5pointSaIS0_EE15_M_erase_at_endEPS0_ @826
    _ZNSt6vectorI5pointSaIS0_EE19_M_emplace_back_auxIJS0_EEEvDpOT_ @827
    _ZNSt6vectorI5pointSaIS0_EE20_M_allocate_and_copyIN9__gnu_cxx17__normal_iteratorIPKS0_S2_EEEEPS0_jT_SA_ @828
    _ZNSt6vectorI5pointSaIS0_EE2atEj @829
    _ZNSt6vectorI5pointSaIS0_EE3endEv @830
    _ZNSt6vectorI5pointSaIS0_EE4swapERS2_ @831
    _ZNSt6vectorI5pointSaIS0_EE5beginEv @832
    _ZNSt6vectorI5pointSaIS0_EE5clearEv @833
    _ZNSt6vectorI5pointSaIS0_EE5eraseEN9__gnu_cxx17__normal_iteratorIPKS0_S2_EE @834
    _ZNSt6vectorI5pointSaIS0_EE8_M_eraseEN9__gnu_cxx17__normal_iteratorIPS0_S2_EE @835
    _ZNSt6vectorI5pointSaIS0_EE9push_backEOS0_ @836
    _ZNSt6vectorI5pointSaIS0_EEC1ERKS1_ @837
    _ZNSt6vectorI5pointSaIS0_EEC1ERKS2_ @838
    _ZNSt6vectorI5pointSaIS0_EEC1Ev @839
    _ZNSt6vectorI5pointSaIS0_EED1Ev @840
    _ZNSt6vectorI5pointSaIS0_EEaSEOS2_ @841
    _ZNSt6vectorI5pointSaIS0_EEaSERKS2_ @842
    _ZNSt6vectorI5pointSaIS0_EEixEj @843
    _ZNSt6vectorI8SDL_RectSaIS0_EE14_M_move_assignEOS2_St17integral_constantIbLb1EE @844
    _ZNSt6vectorI8SDL_RectSaIS0_EE2atEj @845
    _ZNSt6vectorI8SDL_RectSaIS0_EE4swapERS2_ @846
    _ZNSt6vectorI8SDL_RectSaIS0_EEC1ERKS1_ @847
    _ZNSt6vectorI8SDL_RectSaIS0_EEC1ERKS2_ @848
    _ZNSt6vectorI8SDL_RectSaIS0_EEC1Ev @849
    _ZNSt6vectorI8SDL_RectSaIS0_EED1Ev @850
    _ZNSt6vectorI8SDL_RectSaIS0_EEaSEOS2_ @851
    _ZNSt6vectorI8SDL_RectSaIS0_EEixEj @852
    _ZSt10_ConstructI12visual_mediaJS0_EEvPT_DpOT0_ @853
    _ZSt10_ConstructI13button_bundleJRKS0_EEvPT_DpOT0_ @854
    _ZSt10_ConstructI13button_bundleJRS0_EEvPT_DpOT0_ @855
    _ZSt10_ConstructI14loop_procedureJS0_EEvPT_DpOT0_ @856
    _ZSt10_ConstructI14room_procedureJRKS0_EEvPT_DpOT0_ @857
    _ZSt10_ConstructI14room_procedureJS0_EEvPT_DpOT0_ @858
    _ZSt10_ConstructI15panel_interfaceJRS0_EEvPT_DpOT0_ @859
    _ZSt10_ConstructI16rendering_bundleJRKS0_EEvPT_DpOT0_ @860
    _ZSt10_ConstructI16rendering_bundleJRS0_EEvPT_DpOT0_ @861
    _ZSt10_ConstructI5pointJRKS0_EEvPT_DpOT0_ @862
    _ZSt10_ConstructI5pointJRS0_EEvPT_DpOT0_ @863
    _ZSt10_ConstructI5pointJS0_EEvPT_DpOT0_ @864
    _ZSt10__pop_heapIN9__gnu_cxx17__normal_iteratorIP16rendering_bundleSt6vectorIS2_SaIS2_EEEENS0_5__ops15_Iter_comp_iterIPFbRKS2_SB_EEEEvT_SF_SF_T0_ @865
    _ZSt11__addressofI12visual_mediaEPT_RS1_ @866
    _ZSt11__addressofI13button_bundleEPT_RS1_ @867
    _ZSt11__addressofI13key_procedureEPT_RS1_ @868
    _ZSt11__addressofI14loop_procedureEPT_RS1_ @869
    _ZSt11__addressofI14room_procedureEPT_RS1_ @870
    _ZSt11__addressofI15panel_interfaceEPT_RS1_ @871
    _ZSt11__addressofI16rendering_bundleEPT_RS1_ @872
    _ZSt11__addressofI19key_state_procedureEPT_RS1_ @873
    _ZSt11__addressofI5pointEPT_RS1_ @874
    _ZSt11__make_heapIN9__gnu_cxx17__normal_iteratorIP16rendering_bundleSt6vectorIS2_SaIS2_EEEENS0_5__ops15_Iter_comp_iterIPFbRKS2_SB_EEEEvT_SF_T0_ @875
    _ZSt11__push_heapIN9__gnu_cxx17__normal_iteratorIP16rendering_bundleSt6vectorIS2_SaIS2_EEEEiS2_NS0_5__ops14_Iter_comp_valIPFbRKS2_SB_EEEEvT_T0_SG_T1_T2_ @876
    _ZSt11__sort_heapIN9__gnu_cxx17__normal_iteratorIP16rendering_bundleSt6vectorIS2_SaIS2_EEEENS0_5__ops15_Iter_comp_iterIPFbRKS2_SB_EEEEvT_SF_T0_ @877
    _ZSt12__miter_baseIN9__gnu_cxx17__normal_iteratorIP14loop_procedureSt6vectorIS2_SaIS2_EEEEENSt11_Miter_baseIT_E13iterator_typeES9_ @878
    _ZSt12__miter_baseIN9__gnu_cxx17__normal_iteratorIP14room_procedureSt6vectorIS2_SaIS2_EEEEENSt11_Miter_baseIT_E13iterator_typeES9_ @879
    _ZSt12__miter_baseIN9__gnu_cxx17__normal_iteratorIP16rendering_bundleSt6vectorIS2_SaIS2_EEEEENSt11_Miter_baseIT_E13iterator_typeES9_ @880
    _ZSt12__miter_baseIN9__gnu_cxx17__normal_iteratorIP5pointSt6vectorIS2_SaIS2_EEEEENSt11_Miter_baseIT_E13iterator_typeES9_ @881
    _ZSt12__miter_baseIN9__gnu_cxx17__normal_iteratorIPK5pointSt6vectorIS2_SaIS2_EEEEENSt11_Miter_baseIT_E13iterator_typeESA_ @882
    _ZSt12__miter_baseIN9__gnu_cxx17__normal_iteratorIPK8SDL_RectSt6vectorIS2_SaIS2_EEEEENSt11_Miter_baseIT_E13iterator_typeESA_ @883
    _ZSt12__miter_baseIP5pointENSt11_Miter_baseIT_E13iterator_typeES3_ @884
    _ZSt12__miter_baseIPPiENSt11_Miter_baseIT_E13iterator_typeES3_ @885
    _ZSt12__niter_baseIN9__gnu_cxx17__normal_iteratorIP14loop_procedureSt6vectorIS2_SaIS2_EEEEENSt11_Niter_baseIT_E13iterator_typeES9_ @886
    _ZSt12__niter_baseIN9__gnu_cxx17__normal_iteratorIP14room_procedureSt6vectorIS2_SaIS2_EEEEENSt11_Niter_baseIT_E13iterator_typeES9_ @887
    _ZSt12__niter_baseIN9__gnu_cxx17__normal_iteratorIP16rendering_bundleSt6vectorIS2_SaIS2_EEEEENSt11_Niter_baseIT_E13iterator_typeES9_ @888
    _ZSt12__niter_baseIN9__gnu_cxx17__normal_iteratorIP5pointSt6vectorIS2_SaIS2_EEEEENSt11_Niter_baseIT_E13iterator_typeES9_ @889
    _ZSt12__niter_baseIN9__gnu_cxx17__normal_iteratorIPK5pointSt6vectorIS2_SaIS2_EEEEENSt11_Niter_baseIT_E13iterator_typeESA_ @890
    _ZSt12__niter_baseIN9__gnu_cxx17__normal_iteratorIPK8SDL_RectSt6vectorIS2_SaIS2_EEEEENSt11_Niter_baseIT_E13iterator_typeESA_ @891
    _ZSt12__niter_baseIP5pointENSt11_Niter_baseIT_E13iterator_typeES3_ @892
    _ZSt12__niter_baseIP8SDL_RectENSt11_Niter_baseIT_E13iterator_typeES3_ @893
    _ZSt12__niter_baseIPPiENSt11_Niter_baseIT_E13iterator_typeES3_ @894
    _ZSt13__adjust_heapIN9__gnu_cxx17__normal_iteratorIP16rendering_bundleSt6vectorIS2_SaIS2_EEEEiS2_NS0_5__ops15_Iter_comp_iterIPFbRKS2_SB_EEEEvT_T0_SG_T1_T2_ @895
    _ZSt13__copy_move_aILb0EP5pointS1_ET1_T0_S3_S2_ @896
    _ZSt13__copy_move_aILb0EPK5pointPS0_ET1_T0_S5_S4_ @897
    _ZSt13__copy_move_aILb0EPK8SDL_RectPS0_ET1_T0_S5_S4_ @898
    _ZSt13__copy_move_aILb0EPPiS1_ET1_T0_S3_S2_ @899
    _ZSt13__copy_move_aILb1EP14loop_procedureS1_ET1_T0_S3_S2_ @900
    _ZSt13__copy_move_aILb1EP14room_procedureS1_ET1_T0_S3_S2_ @901
    _ZSt13__copy_move_aILb1EP16rendering_bundleS1_ET1_T0_S3_S2_ @902
    _ZSt13__copy_move_aILb1EP5pointS1_ET1_T0_S3_S2_ @903
    _ZSt13__heap_selectIN9__gnu_cxx17__normal_iteratorIP16rendering_bundleSt6vectorIS2_SaIS2_EEEENS0_5__ops15_Iter_comp_iterIPFbRKS2_SB_EEEEvT_SF_SF_T0_ @904
    _ZSt13copy_backwardIPPiS1_ET0_T_S3_S2_ @905
    _ZSt13move_backwardIN9__gnu_cxx17__normal_iteratorIP16rendering_bundleSt6vectorIS2_SaIS2_EEEES7_ET0_T_S9_S8_ @906
    _ZSt14__copy_move_a2ILb0EN9__gnu_cxx17__normal_iteratorIPK5pointSt6vectorIS2_SaIS2_EEEENS1_IPS2_S7_EEET1_T0_SC_SB_ @907
    _ZSt14__copy_move_a2ILb0EN9__gnu_cxx17__normal_iteratorIPK8SDL_RectSt6vectorIS2_SaIS2_EEEEPS2_ET1_T0_SB_SA_ @908
    _ZSt14__copy_move_a2ILb0EP5pointS1_ET1_T0_S3_S2_ @909
    _ZSt14__copy_move_a2ILb0EPPiS1_ET1_T0_S3_S2_ @910
    _ZSt14__copy_move_a2ILb1EN9__gnu_cxx17__normal_iteratorIP14loop_procedureSt6vectorIS2_SaIS2_EEEES7_ET1_T0_S9_S8_ @911
    _ZSt14__copy_move_a2ILb1EN9__gnu_cxx17__normal_iteratorIP14room_procedureSt6vectorIS2_SaIS2_EEEES7_ET1_T0_S9_S8_ @912
    _ZSt14__copy_move_a2ILb1EN9__gnu_cxx17__normal_iteratorIP16rendering_bundleSt6vectorIS2_SaIS2_EEEES7_ET1_T0_S9_S8_ @913
    _ZSt14__copy_move_a2ILb1EN9__gnu_cxx17__normal_iteratorIP5pointSt6vectorIS2_SaIS2_EEEES7_ET1_T0_S9_S8_ @914
    _ZSt14__partial_sortIN9__gnu_cxx17__normal_iteratorIP16rendering_bundleSt6vectorIS2_SaIS2_EEEENS0_5__ops15_Iter_comp_iterIPFbRKS2_SB_EEEEvT_SF_SF_T0_ @915
    _ZSt15__alloc_on_copyISaI5pointEEvRT_RKS2_ @916
    _ZSt15__alloc_on_moveISaI13key_procedureEEvRT_S3_ @917
    _ZSt15__alloc_on_moveISaI14loop_procedureEEvRT_S3_ @918
    _ZSt15__alloc_on_moveISaI14room_procedureEEvRT_S3_ @919
    _ZSt15__alloc_on_moveISaI15panel_interfaceEEvRT_S3_ @920
    _ZSt15__alloc_on_moveISaI19key_state_procedureEEvRT_S3_ @921
    _ZSt15__alloc_on_moveISaI5pointEEvRT_S3_ @922
    _ZSt15__alloc_on_moveISaI8SDL_RectEEvRT_S3_ @923
    _ZSt15__alloc_on_swapISaI13button_bundleEEvRT_S3_ @924
    _ZSt15__alloc_on_swapISaI13key_procedureEEvRT_S3_ @925
    _ZSt15__alloc_on_swapISaI14loop_procedureEEvRT_S3_ @926
    _ZSt15__alloc_on_swapISaI14room_procedureEEvRT_S3_ @927
    _ZSt15__alloc_on_swapISaI15panel_interfaceEEvRT_S3_ @928
    _ZSt15__alloc_on_swapISaI16rendering_bundleEEvRT_S3_ @929
    _ZSt15__alloc_on_swapISaI19key_state_procedureEEvRT_S3_ @930
    _ZSt15__alloc_on_swapISaI5pointEEvRT_S3_ @931
    _ZSt15__alloc_on_swapISaI8SDL_RectEEvRT_S3_ @932
    _ZSt16__deque_buf_sizej @933
    _ZSt16__insertion_sortIN9__gnu_cxx17__normal_iteratorIP16rendering_bundleSt6vectorIS2_SaIS2_EEEENS0_5__ops15_Iter_comp_iterIPFbRKS2_SB_EEEEvT_SF_T0_ @934
    _ZSt16__introsort_loopIN9__gnu_cxx17__normal_iteratorIP16rendering_bundleSt6vectorIS2_SaIS2_EEEEiNS0_5__ops15_Iter_comp_iterIPFbRKS2_SB_EEEEvT_SF_T0_T1_ @935
    _ZSt18__do_alloc_on_copyISaI5pointEEvRT_RKS2_St17integral_constantIbLb0EE @936
    _ZSt18__do_alloc_on_moveISaI13key_procedureEEvRT_S3_St17integral_constantIbLb1EE @937
    _ZSt18__do_alloc_on_moveISaI14loop_procedureEEvRT_S3_St17integral_constantIbLb1EE @938
    _ZSt18__do_alloc_on_moveISaI14room_procedureEEvRT_S3_St17integral_constantIbLb1EE @939
    _ZSt18__do_alloc_on_moveISaI15panel_interfaceEEvRT_S3_St17integral_constantIbLb1EE @940
    _ZSt18__do_alloc_on_moveISaI19key_state_procedureEEvRT_S3_St17integral_constantIbLb1EE @941
    _ZSt18__do_alloc_on_moveISaI5pointEEvRT_S3_St17integral_constantIbLb1EE @942
    _ZSt18__do_alloc_on_moveISaI8SDL_RectEEvRT_S3_St17integral_constantIbLb1EE @943
    _ZSt18__do_alloc_on_swapISaI13button_bundleEEvRT_S3_St17integral_constantIbLb0EE @944
    _ZSt18__do_alloc_on_swapISaI13key_procedureEEvRT_S3_St17integral_constantIbLb0EE @945
    _ZSt18__do_alloc_on_swapISaI14loop_procedureEEvRT_S3_St17integral_constantIbLb0EE @946
    _ZSt18__do_alloc_on_swapISaI14room_procedureEEvRT_S3_St17integral_constantIbLb0EE @947
    _ZSt18__do_alloc_on_swapISaI15panel_interfaceEEvRT_S3_St17integral_constantIbLb0EE @948
    _ZSt18__do_alloc_on_swapISaI16rendering_bundleEEvRT_S3_St17integral_constantIbLb0EE @949
    _ZSt18__do_alloc_on_swapISaI19key_state_procedureEEvRT_S3_St17integral_constantIbLb0EE @950
    _ZSt18__do_alloc_on_swapISaI5pointEEvRT_S3_St17integral_constantIbLb0EE @951
    _ZSt18__do_alloc_on_swapISaI8SDL_RectEEvRT_S3_St17integral_constantIbLb0EE @952
    _ZSt18uninitialized_copyIN9__gnu_cxx17__normal_iteratorIPK13button_bundleSt6vectorIS2_SaIS2_EEEEPS2_ET0_T_SB_SA_ @953
    _ZSt18uninitialized_copyIN9__gnu_cxx17__normal_iteratorIPK14room_procedureSt6vectorIS2_SaIS2_EEEEPS2_ET0_T_SB_SA_ @954
    _ZSt18uninitialized_copyIN9__gnu_cxx17__normal_iteratorIPK16rendering_bundleSt6vectorIS2_SaIS2_EEEEPS2_ET0_T_SB_SA_ @955
    _ZSt18uninitialized_copyIN9__gnu_cxx17__normal_iteratorIPK5pointSt6vectorIS2_SaIS2_EEEEPS2_ET0_T_SB_SA_ @956
    _ZSt18uninitialized_copyIN9__gnu_cxx17__normal_iteratorIPK8SDL_RectSt6vectorIS2_SaIS2_EEEEPS2_ET0_T_SB_SA_ @957
    _ZSt18uninitialized_copyIP13button_bundleS1_ET0_T_S3_S2_ @958
    _ZSt18uninitialized_copyIP15panel_interfaceS1_ET0_T_S3_S2_ @959
    _ZSt18uninitialized_copyIP16rendering_bundleS1_ET0_T_S3_S2_ @960
    _ZSt18uninitialized_copyIP5pointS1_ET0_T_S3_S2_ @961
    _ZSt18uninitialized_copyISt13move_iteratorIP12visual_mediaES2_ET0_T_S5_S4_ @962
    _ZSt18uninitialized_copyISt13move_iteratorIP14loop_procedureES2_ET0_T_S5_S4_ @963
    _ZSt18uninitialized_copyISt13move_iteratorIP14room_procedureES2_ET0_T_S5_S4_ @964
    _ZSt18uninitialized_copyISt13move_iteratorIP5pointES2_ET0_T_S5_S4_ @965
    _ZSt21__unguarded_partitionIN9__gnu_cxx17__normal_iteratorIP16rendering_bundleSt6vectorIS2_SaIS2_EEEENS0_5__ops15_Iter_comp_iterIPFbRKS2_SB_EEEET_SF_SF_SF_T0_ @966
    _ZSt22__copy_move_backward_aILb0EPPiS1_ET1_T0_S3_S2_ @967
    _ZSt22__copy_move_backward_aILb1EP16rendering_bundleS1_ET1_T0_S3_S2_ @968
    _ZSt22__final_insertion_sortIN9__gnu_cxx17__normal_iteratorIP16rendering_bundleSt6vectorIS2_SaIS2_EEEENS0_5__ops15_Iter_comp_iterIPFbRKS2_SB_EEEEvT_SF_T0_ @969
    _ZSt22__move_median_to_firstIN9__gnu_cxx17__normal_iteratorIP16rendering_bundleSt6vectorIS2_SaIS2_EEEENS0_5__ops15_Iter_comp_iterIPFbRKS2_SB_EEEEvT_SF_SF_SF_T0_ @970
    _ZSt22__uninitialized_copy_aIN9__gnu_cxx17__normal_iteratorIPK13button_bundleSt6vectorIS2_SaIS2_EEEEPS2_S2_ET0_T_SB_SA_RSaIT1_E @971
    _ZSt22__uninitialized_copy_aIN9__gnu_cxx17__normal_iteratorIPK14room_procedureSt6vectorIS2_SaIS2_EEEEPS2_S2_ET0_T_SB_SA_RSaIT1_E @972
    _ZSt22__uninitialized_copy_aIN9__gnu_cxx17__normal_iteratorIPK16rendering_bundleSt6vectorIS2_SaIS2_EEEEPS2_S2_ET0_T_SB_SA_RSaIT1_E @973
    _ZSt22__uninitialized_copy_aIN9__gnu_cxx17__normal_iteratorIPK5pointSt6vectorIS2_SaIS2_EEEEPS2_S2_ET0_T_SB_SA_RSaIT1_E @974
    _ZSt22__uninitialized_copy_aIN9__gnu_cxx17__normal_iteratorIPK8SDL_RectSt6vectorIS2_SaIS2_EEEEPS2_S2_ET0_T_SB_SA_RSaIT1_E @975
    _ZSt22__uninitialized_copy_aIP13button_bundleS1_S0_ET0_T_S3_S2_RSaIT1_E @976
    _ZSt22__uninitialized_copy_aIP15panel_interfaceS1_S0_ET0_T_S3_S2_RSaIT1_E @977
    _ZSt22__uninitialized_copy_aIP16rendering_bundleS1_S0_ET0_T_S3_S2_RSaIT1_E @978
    _ZSt22__uninitialized_copy_aIP5pointS1_S0_ET0_T_S3_S2_RSaIT1_E @979
    _ZSt22__uninitialized_copy_aISt13move_iteratorIP12visual_mediaES2_S1_ET0_T_S5_S4_RSaIT1_E @980
    _ZSt22__uninitialized_copy_aISt13move_iteratorIP14loop_procedureES2_S1_ET0_T_S5_S4_RSaIT1_E @981
    _ZSt22__uninitialized_copy_aISt13move_iteratorIP14room_procedureES2_S1_ET0_T_S5_S4_RSaIT1_E @982
    _ZSt22__uninitialized_copy_aISt13move_iteratorIP5pointES2_S1_ET0_T_S5_S4_RSaIT1_E @983
    _ZSt23__copy_move_backward_a2ILb0EPPiS1_ET1_T0_S3_S2_ @984
    _ZSt23__copy_move_backward_a2ILb1EN9__gnu_cxx17__normal_iteratorIP16rendering_bundleSt6vectorIS2_SaIS2_EEEES7_ET1_T0_S9_S8_ @985
    _ZSt25__unguarded_linear_insertIN9__gnu_cxx17__normal_iteratorIP16rendering_bundleSt6vectorIS2_SaIS2_EEEENS0_5__ops14_Val_comp_iterIPFbRKS2_SB_EEEEvT_T0_ @986
    _ZSt26__unguarded_insertion_sortIN9__gnu_cxx17__normal_iteratorIP16rendering_bundleSt6vectorIS2_SaIS2_EEEENS0_5__ops15_Iter_comp_iterIPFbRKS2_SB_EEEEvT_SF_T0_ @987
    _ZSt27__unguarded_partition_pivotIN9__gnu_cxx17__normal_iteratorIP16rendering_bundleSt6vectorIS2_SaIS2_EEEENS0_5__ops15_Iter_comp_iterIPFbRKS2_SB_EEEET_SF_SF_T0_ @988
    _ZSt32__make_move_if_noexcept_iteratorIP12visual_mediaSt13move_iteratorIS1_EET0_T_ @989
    _ZSt32__make_move_if_noexcept_iteratorIP13button_bundleS1_ET0_T_ @990
    _ZSt32__make_move_if_noexcept_iteratorIP14loop_procedureSt13move_iteratorIS1_EET0_T_ @991
    _ZSt32__make_move_if_noexcept_iteratorIP14room_procedureSt13move_iteratorIS1_EET0_T_ @992
    _ZSt32__make_move_if_noexcept_iteratorIP15panel_interfaceS1_ET0_T_ @993
    _ZSt32__make_move_if_noexcept_iteratorIP16rendering_bundleS1_ET0_T_ @994
    _ZSt32__make_move_if_noexcept_iteratorIP5pointSt13move_iteratorIS1_EET0_T_ @995
    _ZSt34__uninitialized_move_if_noexcept_aIP12visual_mediaS1_SaIS0_EET0_T_S4_S3_RT1_ @996
    _ZSt34__uninitialized_move_if_noexcept_aIP13button_bundleS1_SaIS0_EET0_T_S4_S3_RT1_ @997
    _ZSt34__uninitialized_move_if_noexcept_aIP14loop_procedureS1_SaIS0_EET0_T_S4_S3_RT1_ @998
    _ZSt34__uninitialized_move_if_noexcept_aIP14room_procedureS1_SaIS0_EET0_T_S4_S3_RT1_ @999
    _ZSt34__uninitialized_move_if_noexcept_aIP15panel_interfaceS1_SaIS0_EET0_T_S4_S3_RT1_ @1000
    _ZSt34__uninitialized_move_if_noexcept_aIP16rendering_bundleS1_SaIS0_EET0_T_S4_S3_RT1_ @1001
    _ZSt34__uninitialized_move_if_noexcept_aIP5pointS1_SaIS0_EET0_T_S4_S3_RT1_ @1002
    _ZSt3maxIjERKT_S2_S2_ @1003
    _ZSt4__lgi @1004
    _ZSt4copyIN9__gnu_cxx17__normal_iteratorIPK5pointSt6vectorIS2_SaIS2_EEEENS1_IPS2_S7_EEET0_T_SC_SB_ @1005
    _ZSt4copyIN9__gnu_cxx17__normal_iteratorIPK8SDL_RectSt6vectorIS2_SaIS2_EEEEPS2_ET0_T_SB_SA_ @1006
    _ZSt4copyIP5pointS1_ET0_T_S3_S2_ @1007
    _ZSt4copyIPPiS1_ET0_T_S3_S2_ @1008
    _ZSt4moveIN9__gnu_cxx17__normal_iteratorIP14loop_procedureSt6vectorIS2_SaIS2_EEEES7_ET0_T_S9_S8_ @1009
    _ZSt4moveIN9__gnu_cxx17__normal_iteratorIP14room_procedureSt6vectorIS2_SaIS2_EEEES7_ET0_T_S9_S8_ @1010
    _ZSt4moveIN9__gnu_cxx17__normal_iteratorIP16rendering_bundleSt6vectorIS2_SaIS2_EEEES7_ET0_T_S9_S8_ @1011
    _ZSt4moveIN9__gnu_cxx17__normal_iteratorIP5pointSt6vectorIS2_SaIS2_EEEES7_ET0_T_S9_S8_ @1012
    _ZSt4moveIR14loop_procedureEONSt16remove_referenceIT_E4typeEOS3_ @1013
    _ZSt4moveIR14room_procedureEONSt16remove_referenceIT_E4typeEOS3_ @1014
    _ZSt4moveIR15panel_interfaceEONSt16remove_referenceIT_E4typeEOS3_ @1015
    _ZSt4moveIR16rendering_bundleEONSt16remove_referenceIT_E4typeEOS3_ @1016
    _ZSt4moveIR5pointEONSt16remove_referenceIT_E4typeEOS3_ @1017
    _ZSt4moveIRP13button_bundleEONSt16remove_referenceIT_E4typeEOS4_ @1018
    _ZSt4moveIRP13key_procedureEONSt16remove_referenceIT_E4typeEOS4_ @1019
    _ZSt4moveIRP14loop_procedureEONSt16remove_referenceIT_E4typeEOS4_ @1020
    _ZSt4moveIRP14room_procedureEONSt16remove_referenceIT_E4typeEOS4_ @1021
    _ZSt4moveIRP15panel_interfaceEONSt16remove_referenceIT_E4typeEOS4_ @1022
    _ZSt4moveIRP16rendering_bundleEONSt16remove_referenceIT_E4typeEOS4_ @1023
    _ZSt4moveIRP19key_state_procedureEONSt16remove_referenceIT_E4typeEOS4_ @1024
    _ZSt4moveIRP5pointEONSt16remove_referenceIT_E4typeEOS4_ @1025
    _ZSt4moveIRP8SDL_RectEONSt16remove_referenceIT_E4typeEOS4_ @1026
    _ZSt4moveIRPPiEONSt16remove_referenceIT_E4typeEOS4_ @1027
    _ZSt4moveIRSaI13key_procedureEEONSt16remove_referenceIT_E4typeEOS4_ @1028
    _ZSt4moveIRSaI14loop_procedureEEONSt16remove_referenceIT_E4typeEOS4_ @1029
    _ZSt4moveIRSaI14room_procedureEEONSt16remove_referenceIT_E4typeEOS4_ @1030
    _ZSt4moveIRSaI15panel_interfaceEEONSt16remove_referenceIT_E4typeEOS4_ @1031
    _ZSt4moveIRSaI19key_state_procedureEEONSt16remove_referenceIT_E4typeEOS4_ @1032
    _ZSt4moveIRSaI5pointEEONSt16remove_referenceIT_E4typeEOS4_ @1033
    _ZSt4moveIRSaI8SDL_RectEEONSt16remove_referenceIT_E4typeEOS4_ @1034
    _ZSt4moveIRSaIiEEONSt16remove_referenceIT_E4typeEOS3_ @1035
    _ZSt4moveIRSt11_Deque_baseIiSaIiEEEONSt16remove_referenceIT_E4typeEOS5_ @1036
    _ZSt4moveIRSt15_Deque_iteratorIiRiPiEEONSt16remove_referenceIT_E4typeEOS6_ @1037
    _ZSt4moveIRSt5dequeIiSaIiEEEONSt16remove_referenceIT_E4typeEOS5_ @1038
    _ZSt4moveIRSt6vectorI13key_procedureSaIS1_EEEONSt16remove_referenceIT_E4typeEOS6_ @1039
    _ZSt4moveIRSt6vectorI14loop_procedureSaIS1_EEEONSt16remove_referenceIT_E4typeEOS6_ @1040
    _ZSt4moveIRSt6vectorI14room_procedureSaIS1_EEEONSt16remove_referenceIT_E4typeEOS6_ @1041
    _ZSt4moveIRSt6vectorI15panel_interfaceSaIS1_EEEONSt16remove_referenceIT_E4typeEOS6_ @1042
    _ZSt4moveIRSt6vectorI19key_state_procedureSaIS1_EEEONSt16remove_referenceIT_E4typeEOS6_ @1043
    _ZSt4moveIRSt6vectorI5pointSaIS1_EEEONSt16remove_referenceIT_E4typeEOS6_ @1044
    _ZSt4moveIRSt6vectorI8SDL_RectSaIS1_EEEONSt16remove_referenceIT_E4typeEOS6_ @1045
    _ZSt4moveIRiEONSt16remove_referenceIT_E4typeEOS2_ @1046
    _ZSt4moveIRjEONSt16remove_referenceIT_E4typeEOS2_ @1047
    _ZSt4sortIN9__gnu_cxx17__normal_iteratorIP16rendering_bundleSt6vectorIS2_SaIS2_EEEEPFbRKS2_S9_EEvT_SC_T0_ @1048
    _ZSt4swapI16rendering_bundleEvRT_S2_ @1049
    _ZSt4swapIP13button_bundleEvRT_S3_ @1050
    _ZSt4swapIP13key_procedureEvRT_S3_ @1051
    _ZSt4swapIP14loop_procedureEvRT_S3_ @1052
    _ZSt4swapIP14room_procedureEvRT_S3_ @1053
    _ZSt4swapIP15panel_interfaceEvRT_S3_ @1054
    _ZSt4swapIP16rendering_bundleEvRT_S3_ @1055
    _ZSt4swapIP19key_state_procedureEvRT_S3_ @1056
    _ZSt4swapIP5pointEvRT_S3_ @1057
    _ZSt4swapIP8SDL_RectEvRT_S3_ @1058
    _ZSt4swapIPPiEvRT_S3_ @1059
    _ZSt4swapISt15_Deque_iteratorIiRiPiEEvRT_S5_ @1060
    _ZSt4swapIjEvRT_S1_ @1061
    _ZSt6__sortIN9__gnu_cxx17__normal_iteratorIP16rendering_bundleSt6vectorIS2_SaIS2_EEEENS0_5__ops15_Iter_comp_iterIPFbRKS2_SB_EEEEvT_SF_T0_ @1062
    _ZSt7forwardI12visual_mediaEOT_RNSt16remove_referenceIS1_E4typeE @1063
    _ZSt7forwardI14loop_procedureEOT_RNSt16remove_referenceIS1_E4typeE @1064
    _ZSt7forwardI14room_procedureEOT_RNSt16remove_referenceIS1_E4typeE @1065
    _ZSt7forwardI15panel_interfaceEOT_RNSt16remove_referenceIS1_E4typeE @1066
    _ZSt7forwardI5pointEOT_RNSt16remove_referenceIS1_E4typeE @1067
    _ZSt7forwardIR13button_bundleEOT_RNSt16remove_referenceIS2_E4typeE @1068
    _ZSt7forwardIR15panel_interfaceEOT_RNSt16remove_referenceIS2_E4typeE @1069
    _ZSt7forwardIR16rendering_bundleEOT_RNSt16remove_referenceIS2_E4typeE @1070
    _ZSt7forwardIR5pointEOT_RNSt16remove_referenceIS2_E4typeE @1071
    _ZSt7forwardIRK12visual_mediaEOT_RNSt16remove_referenceIS3_E4typeE @1072
    _ZSt7forwardIRK13button_bundleEOT_RNSt16remove_referenceIS3_E4typeE @1073
    _ZSt7forwardIRK14loop_procedureEOT_RNSt16remove_referenceIS3_E4typeE @1074
    _ZSt7forwardIRK14room_procedureEOT_RNSt16remove_referenceIS3_E4typeE @1075
    _ZSt7forwardIRK16rendering_bundleEOT_RNSt16remove_referenceIS3_E4typeE @1076
    _ZSt7forwardIRK5pointEOT_RNSt16remove_referenceIS3_E4typeE @1077
    _ZSt7forwardIiEOT_RNSt16remove_referenceIS0_E4typeE @1078
    _ZSt8_DestroyI12visual_mediaEvPT_ @1079
    _ZSt8_DestroyI13button_bundleEvPT_ @1080
    _ZSt8_DestroyI13key_procedureEvPT_ @1081
    _ZSt8_DestroyI14loop_procedureEvPT_ @1082
    _ZSt8_DestroyI14room_procedureEvPT_ @1083
    _ZSt8_DestroyI15panel_interfaceEvPT_ @1084
    _ZSt8_DestroyI16rendering_bundleEvPT_ @1085
    _ZSt8_DestroyI19key_state_procedureEvPT_ @1086
    _ZSt8_DestroyI5pointEvPT_ @1087
    _ZSt8_DestroyIN9__gnu_cxx17__normal_iteratorIP5pointSt6vectorIS2_SaIS2_EEEEEvT_S8_ @1088
    _ZSt8_DestroyIN9__gnu_cxx17__normal_iteratorIP5pointSt6vectorIS2_SaIS2_EEEES2_EvT_S8_RSaIT0_E @1089
    _ZSt8_DestroyIP12visual_mediaEvT_S2_ @1090
    _ZSt8_DestroyIP12visual_mediaS0_EvT_S2_RSaIT0_E @1091
    _ZSt8_DestroyIP13button_bundleEvT_S2_ @1092
    _ZSt8_DestroyIP13button_bundleS0_EvT_S2_RSaIT0_E @1093
    _ZSt8_DestroyIP13key_procedureEvT_S2_ @1094
    _ZSt8_DestroyIP13key_procedureS0_EvT_S2_RSaIT0_E @1095
    _ZSt8_DestroyIP14loop_procedureEvT_S2_ @1096
    _ZSt8_DestroyIP14loop_procedureS0_EvT_S2_RSaIT0_E @1097
    _ZSt8_DestroyIP14room_procedureEvT_S2_ @1098
    _ZSt8_DestroyIP14room_procedureS0_EvT_S2_RSaIT0_E @1099
    _ZSt8_DestroyIP15panel_interfaceEvT_S2_ @1100
    _ZSt8_DestroyIP15panel_interfaceS0_EvT_S2_RSaIT0_E @1101
    _ZSt8_DestroyIP16rendering_bundleEvT_S2_ @1102
    _ZSt8_DestroyIP16rendering_bundleS0_EvT_S2_RSaIT0_E @1103
    _ZSt8_DestroyIP19key_state_procedureEvT_S2_ @1104
    _ZSt8_DestroyIP19key_state_procedureS0_EvT_S2_RSaIT0_E @1105
    _ZSt8_DestroyIP5pointEvT_S2_ @1106
    _ZSt8_DestroyIP5pointS0_EvT_S2_RSaIT0_E @1107
    _ZSt8_DestroyIP8SDL_RectEvT_S2_ @1108
    _ZSt8_DestroyIP8SDL_RectS0_EvT_S2_RSaIT0_E @1109
    _ZSt9iter_swapIN9__gnu_cxx17__normal_iteratorIP16rendering_bundleSt6vectorIS2_SaIS2_EEEES7_EvT_T0_ @1110
    _ZSteqIP12visual_mediaEbRKSt13move_iteratorIT_ES6_ @1111
    _ZSteqIP14loop_procedureEbRKSt13move_iteratorIT_ES6_ @1112
    _ZSteqIP14room_procedureEbRKSt13move_iteratorIT_ES6_ @1113
    _ZSteqIP5pointEbRKSt13move_iteratorIT_ES6_ @1114
    _ZStneI5pointEbRKSaIT_ES4_ @1115
    _ZStneIP12visual_mediaEbRKSt13move_iteratorIT_ES6_ @1116
    _ZStneIP14loop_procedureEbRKSt13move_iteratorIT_ES6_ @1117
    _ZStneIP14room_procedureEbRKSt13move_iteratorIT_ES6_ @1118
    _ZStneIP5pointEbRKSt13move_iteratorIT_ES6_ @1119
    _ZTI14loop_procedure @1120 DATA
    _ZTI14procedure_baseIjE @1121 DATA
    _ZTI14room_procedure @1122 DATA
    _ZTISt11logic_error @1123 DATA
    _ZTISt12out_of_range @1124 DATA
    _ZTISt9exception @1125 DATA
    _ZTS14loop_procedure @1126 DATA
    _ZTS14procedure_baseIjE @1127 DATA
    _ZTS14room_procedure @1128 DATA
    _ZTSSt11logic_error @1129 DATA
    _ZTSSt12out_of_range @1130 DATA
    _ZTSSt9exception @1131 DATA
    _ZTV14loop_procedure @1132 DATA
    _ZTV14procedure_baseIjE @1133 DATA
    _ZTV14room_procedure @1134 DATA
    _ZdlPvS_ @1135
    _ZnwjPv @1136
    _get_output_format @1137
